
rtarget:     file format elf64-x86-64


Disassembly of section .init:

0000000000400c50 <_init>:
  400c50:	48 83 ec 08          	sub    $0x8,%rsp
  400c54:	48 8b 05 9d 43 20 00 	mov    0x20439d(%rip),%rax        # 604ff8 <_DYNAMIC+0x1e0>
  400c5b:	48 85 c0             	test   %rax,%rax
  400c5e:	74 05                	je     400c65 <_init+0x15>
  400c60:	e8 1b 02 00 00       	callq  400e80 <socket@plt+0x10>
  400c65:	48 83 c4 08          	add    $0x8,%rsp
  400c69:	c3                   	retq   

Disassembly of section .plt:

0000000000400c70 <__errno_location@plt-0x10>:
  400c70:	ff 35 92 43 20 00    	pushq  0x204392(%rip)        # 605008 <_GLOBAL_OFFSET_TABLE_+0x8>
  400c76:	ff 25 94 43 20 00    	jmpq   *0x204394(%rip)        # 605010 <_GLOBAL_OFFSET_TABLE_+0x10>
  400c7c:	0f 1f 40 00          	nopl   0x0(%rax)

0000000000400c80 <__errno_location@plt>:
  400c80:	ff 25 92 43 20 00    	jmpq   *0x204392(%rip)        # 605018 <_GLOBAL_OFFSET_TABLE_+0x18>
  400c86:	68 00 00 00 00       	pushq  $0x0
  400c8b:	e9 e0 ff ff ff       	jmpq   400c70 <_init+0x20>

0000000000400c90 <srandom@plt>:
  400c90:	ff 25 8a 43 20 00    	jmpq   *0x20438a(%rip)        # 605020 <_GLOBAL_OFFSET_TABLE_+0x20>
  400c96:	68 01 00 00 00       	pushq  $0x1
  400c9b:	e9 d0 ff ff ff       	jmpq   400c70 <_init+0x20>

0000000000400ca0 <strncmp@plt>:
  400ca0:	ff 25 82 43 20 00    	jmpq   *0x204382(%rip)        # 605028 <_GLOBAL_OFFSET_TABLE_+0x28>
  400ca6:	68 02 00 00 00       	pushq  $0x2
  400cab:	e9 c0 ff ff ff       	jmpq   400c70 <_init+0x20>

0000000000400cb0 <strcpy@plt>:
  400cb0:	ff 25 7a 43 20 00    	jmpq   *0x20437a(%rip)        # 605030 <_GLOBAL_OFFSET_TABLE_+0x30>
  400cb6:	68 03 00 00 00       	pushq  $0x3
  400cbb:	e9 b0 ff ff ff       	jmpq   400c70 <_init+0x20>

0000000000400cc0 <puts@plt>:
  400cc0:	ff 25 72 43 20 00    	jmpq   *0x204372(%rip)        # 605038 <_GLOBAL_OFFSET_TABLE_+0x38>
  400cc6:	68 04 00 00 00       	pushq  $0x4
  400ccb:	e9 a0 ff ff ff       	jmpq   400c70 <_init+0x20>

0000000000400cd0 <write@plt>:
  400cd0:	ff 25 6a 43 20 00    	jmpq   *0x20436a(%rip)        # 605040 <_GLOBAL_OFFSET_TABLE_+0x40>
  400cd6:	68 05 00 00 00       	pushq  $0x5
  400cdb:	e9 90 ff ff ff       	jmpq   400c70 <_init+0x20>

0000000000400ce0 <mmap@plt>:
  400ce0:	ff 25 62 43 20 00    	jmpq   *0x204362(%rip)        # 605048 <_GLOBAL_OFFSET_TABLE_+0x48>
  400ce6:	68 06 00 00 00       	pushq  $0x6
  400ceb:	e9 80 ff ff ff       	jmpq   400c70 <_init+0x20>

0000000000400cf0 <printf@plt>:
  400cf0:	ff 25 5a 43 20 00    	jmpq   *0x20435a(%rip)        # 605050 <_GLOBAL_OFFSET_TABLE_+0x50>
  400cf6:	68 07 00 00 00       	pushq  $0x7
  400cfb:	e9 70 ff ff ff       	jmpq   400c70 <_init+0x20>

0000000000400d00 <memset@plt>:
  400d00:	ff 25 52 43 20 00    	jmpq   *0x204352(%rip)        # 605058 <_GLOBAL_OFFSET_TABLE_+0x58>
  400d06:	68 08 00 00 00       	pushq  $0x8
  400d0b:	e9 60 ff ff ff       	jmpq   400c70 <_init+0x20>

0000000000400d10 <alarm@plt>:
  400d10:	ff 25 4a 43 20 00    	jmpq   *0x20434a(%rip)        # 605060 <_GLOBAL_OFFSET_TABLE_+0x60>
  400d16:	68 09 00 00 00       	pushq  $0x9
  400d1b:	e9 50 ff ff ff       	jmpq   400c70 <_init+0x20>

0000000000400d20 <close@plt>:
  400d20:	ff 25 42 43 20 00    	jmpq   *0x204342(%rip)        # 605068 <_GLOBAL_OFFSET_TABLE_+0x68>
  400d26:	68 0a 00 00 00       	pushq  $0xa
  400d2b:	e9 40 ff ff ff       	jmpq   400c70 <_init+0x20>

0000000000400d30 <read@plt>:
  400d30:	ff 25 3a 43 20 00    	jmpq   *0x20433a(%rip)        # 605070 <_GLOBAL_OFFSET_TABLE_+0x70>
  400d36:	68 0b 00 00 00       	pushq  $0xb
  400d3b:	e9 30 ff ff ff       	jmpq   400c70 <_init+0x20>

0000000000400d40 <__libc_start_main@plt>:
  400d40:	ff 25 32 43 20 00    	jmpq   *0x204332(%rip)        # 605078 <_GLOBAL_OFFSET_TABLE_+0x78>
  400d46:	68 0c 00 00 00       	pushq  $0xc
  400d4b:	e9 20 ff ff ff       	jmpq   400c70 <_init+0x20>

0000000000400d50 <signal@plt>:
  400d50:	ff 25 2a 43 20 00    	jmpq   *0x20432a(%rip)        # 605080 <_GLOBAL_OFFSET_TABLE_+0x80>
  400d56:	68 0d 00 00 00       	pushq  $0xd
  400d5b:	e9 10 ff ff ff       	jmpq   400c70 <_init+0x20>

0000000000400d60 <gethostbyname@plt>:
  400d60:	ff 25 22 43 20 00    	jmpq   *0x204322(%rip)        # 605088 <_GLOBAL_OFFSET_TABLE_+0x88>
  400d66:	68 0e 00 00 00       	pushq  $0xe
  400d6b:	e9 00 ff ff ff       	jmpq   400c70 <_init+0x20>

0000000000400d70 <fprintf@plt>:
  400d70:	ff 25 1a 43 20 00    	jmpq   *0x20431a(%rip)        # 605090 <_GLOBAL_OFFSET_TABLE_+0x90>
  400d76:	68 0f 00 00 00       	pushq  $0xf
  400d7b:	e9 f0 fe ff ff       	jmpq   400c70 <_init+0x20>

0000000000400d80 <strtol@plt>:
  400d80:	ff 25 12 43 20 00    	jmpq   *0x204312(%rip)        # 605098 <_GLOBAL_OFFSET_TABLE_+0x98>
  400d86:	68 10 00 00 00       	pushq  $0x10
  400d8b:	e9 e0 fe ff ff       	jmpq   400c70 <_init+0x20>

0000000000400d90 <memcpy@plt>:
  400d90:	ff 25 0a 43 20 00    	jmpq   *0x20430a(%rip)        # 6050a0 <_GLOBAL_OFFSET_TABLE_+0xa0>
  400d96:	68 11 00 00 00       	pushq  $0x11
  400d9b:	e9 d0 fe ff ff       	jmpq   400c70 <_init+0x20>

0000000000400da0 <time@plt>:
  400da0:	ff 25 02 43 20 00    	jmpq   *0x204302(%rip)        # 6050a8 <_GLOBAL_OFFSET_TABLE_+0xa8>
  400da6:	68 12 00 00 00       	pushq  $0x12
  400dab:	e9 c0 fe ff ff       	jmpq   400c70 <_init+0x20>

0000000000400db0 <random@plt>:
  400db0:	ff 25 fa 42 20 00    	jmpq   *0x2042fa(%rip)        # 6050b0 <_GLOBAL_OFFSET_TABLE_+0xb0>
  400db6:	68 13 00 00 00       	pushq  $0x13
  400dbb:	e9 b0 fe ff ff       	jmpq   400c70 <_init+0x20>

0000000000400dc0 <_IO_getc@plt>:
  400dc0:	ff 25 f2 42 20 00    	jmpq   *0x2042f2(%rip)        # 6050b8 <_GLOBAL_OFFSET_TABLE_+0xb8>
  400dc6:	68 14 00 00 00       	pushq  $0x14
  400dcb:	e9 a0 fe ff ff       	jmpq   400c70 <_init+0x20>

0000000000400dd0 <__isoc99_sscanf@plt>:
  400dd0:	ff 25 ea 42 20 00    	jmpq   *0x2042ea(%rip)        # 6050c0 <_GLOBAL_OFFSET_TABLE_+0xc0>
  400dd6:	68 15 00 00 00       	pushq  $0x15
  400ddb:	e9 90 fe ff ff       	jmpq   400c70 <_init+0x20>

0000000000400de0 <munmap@plt>:
  400de0:	ff 25 e2 42 20 00    	jmpq   *0x2042e2(%rip)        # 6050c8 <_GLOBAL_OFFSET_TABLE_+0xc8>
  400de6:	68 16 00 00 00       	pushq  $0x16
  400deb:	e9 80 fe ff ff       	jmpq   400c70 <_init+0x20>

0000000000400df0 <bcopy@plt>:
  400df0:	ff 25 da 42 20 00    	jmpq   *0x2042da(%rip)        # 6050d0 <_GLOBAL_OFFSET_TABLE_+0xd0>
  400df6:	68 17 00 00 00       	pushq  $0x17
  400dfb:	e9 70 fe ff ff       	jmpq   400c70 <_init+0x20>

0000000000400e00 <fopen@plt>:
  400e00:	ff 25 d2 42 20 00    	jmpq   *0x2042d2(%rip)        # 6050d8 <_GLOBAL_OFFSET_TABLE_+0xd8>
  400e06:	68 18 00 00 00       	pushq  $0x18
  400e0b:	e9 60 fe ff ff       	jmpq   400c70 <_init+0x20>

0000000000400e10 <getopt@plt>:
  400e10:	ff 25 ca 42 20 00    	jmpq   *0x2042ca(%rip)        # 6050e0 <_GLOBAL_OFFSET_TABLE_+0xe0>
  400e16:	68 19 00 00 00       	pushq  $0x19
  400e1b:	e9 50 fe ff ff       	jmpq   400c70 <_init+0x20>

0000000000400e20 <strtoul@plt>:
  400e20:	ff 25 c2 42 20 00    	jmpq   *0x2042c2(%rip)        # 6050e8 <_GLOBAL_OFFSET_TABLE_+0xe8>
  400e26:	68 1a 00 00 00       	pushq  $0x1a
  400e2b:	e9 40 fe ff ff       	jmpq   400c70 <_init+0x20>

0000000000400e30 <gethostname@plt>:
  400e30:	ff 25 ba 42 20 00    	jmpq   *0x2042ba(%rip)        # 6050f0 <_GLOBAL_OFFSET_TABLE_+0xf0>
  400e36:	68 1b 00 00 00       	pushq  $0x1b
  400e3b:	e9 30 fe ff ff       	jmpq   400c70 <_init+0x20>

0000000000400e40 <sprintf@plt>:
  400e40:	ff 25 b2 42 20 00    	jmpq   *0x2042b2(%rip)        # 6050f8 <_GLOBAL_OFFSET_TABLE_+0xf8>
  400e46:	68 1c 00 00 00       	pushq  $0x1c
  400e4b:	e9 20 fe ff ff       	jmpq   400c70 <_init+0x20>

0000000000400e50 <exit@plt>:
  400e50:	ff 25 aa 42 20 00    	jmpq   *0x2042aa(%rip)        # 605100 <_GLOBAL_OFFSET_TABLE_+0x100>
  400e56:	68 1d 00 00 00       	pushq  $0x1d
  400e5b:	e9 10 fe ff ff       	jmpq   400c70 <_init+0x20>

0000000000400e60 <connect@plt>:
  400e60:	ff 25 a2 42 20 00    	jmpq   *0x2042a2(%rip)        # 605108 <_GLOBAL_OFFSET_TABLE_+0x108>
  400e66:	68 1e 00 00 00       	pushq  $0x1e
  400e6b:	e9 00 fe ff ff       	jmpq   400c70 <_init+0x20>

0000000000400e70 <socket@plt>:
  400e70:	ff 25 9a 42 20 00    	jmpq   *0x20429a(%rip)        # 605110 <_GLOBAL_OFFSET_TABLE_+0x110>
  400e76:	68 1f 00 00 00       	pushq  $0x1f
  400e7b:	e9 f0 fd ff ff       	jmpq   400c70 <_init+0x20>

Disassembly of section .plt.got:

0000000000400e80 <.plt.got>:
  400e80:	ff 25 72 41 20 00    	jmpq   *0x204172(%rip)        # 604ff8 <_DYNAMIC+0x1e0>
  400e86:	66 90                	xchg   %ax,%ax

Disassembly of section .text:

0000000000400e90 <_start>:
  400e90:	31 ed                	xor    %ebp,%ebp
  400e92:	49 89 d1             	mov    %rdx,%r9
  400e95:	5e                   	pop    %rsi
  400e96:	48 89 e2             	mov    %rsp,%rdx
  400e99:	48 83 e4 f0          	and    $0xfffffffffffffff0,%rsp
  400e9d:	50                   	push   %rax
  400e9e:	54                   	push   %rsp
  400e9f:	49 c7 c0 b0 2d 40 00 	mov    $0x402db0,%r8
  400ea6:	48 c7 c1 40 2d 40 00 	mov    $0x402d40,%rcx
  400ead:	48 c7 c7 fb 10 40 00 	mov    $0x4010fb,%rdi
  400eb4:	e8 87 fe ff ff       	callq  400d40 <__libc_start_main@plt>
  400eb9:	f4                   	hlt    
  400eba:	66 0f 1f 44 00 00    	nopw   0x0(%rax,%rax,1)

0000000000400ec0 <deregister_tm_clones>:
  400ec0:	b8 97 54 60 00       	mov    $0x605497,%eax
  400ec5:	55                   	push   %rbp
  400ec6:	48 2d 90 54 60 00    	sub    $0x605490,%rax
  400ecc:	48 83 f8 0e          	cmp    $0xe,%rax
  400ed0:	48 89 e5             	mov    %rsp,%rbp
  400ed3:	77 02                	ja     400ed7 <deregister_tm_clones+0x17>
  400ed5:	5d                   	pop    %rbp
  400ed6:	c3                   	retq   
  400ed7:	b8 00 00 00 00       	mov    $0x0,%eax
  400edc:	48 85 c0             	test   %rax,%rax
  400edf:	74 f4                	je     400ed5 <deregister_tm_clones+0x15>
  400ee1:	5d                   	pop    %rbp
  400ee2:	bf 90 54 60 00       	mov    $0x605490,%edi
  400ee7:	ff e0                	jmpq   *%rax
  400ee9:	0f 1f 80 00 00 00 00 	nopl   0x0(%rax)

0000000000400ef0 <register_tm_clones>:
  400ef0:	b8 90 54 60 00       	mov    $0x605490,%eax
  400ef5:	55                   	push   %rbp
  400ef6:	48 2d 90 54 60 00    	sub    $0x605490,%rax
  400efc:	48 c1 f8 03          	sar    $0x3,%rax
  400f00:	48 89 e5             	mov    %rsp,%rbp
  400f03:	48 89 c2             	mov    %rax,%rdx
  400f06:	48 c1 ea 3f          	shr    $0x3f,%rdx
  400f0a:	48 01 d0             	add    %rdx,%rax
  400f0d:	48 d1 f8             	sar    %rax
  400f10:	75 02                	jne    400f14 <register_tm_clones+0x24>
  400f12:	5d                   	pop    %rbp
  400f13:	c3                   	retq   
  400f14:	ba 00 00 00 00       	mov    $0x0,%edx
  400f19:	48 85 d2             	test   %rdx,%rdx
  400f1c:	74 f4                	je     400f12 <register_tm_clones+0x22>
  400f1e:	5d                   	pop    %rbp
  400f1f:	48 89 c6             	mov    %rax,%rsi
  400f22:	bf 90 54 60 00       	mov    $0x605490,%edi
  400f27:	ff e2                	jmpq   *%rdx
  400f29:	0f 1f 80 00 00 00 00 	nopl   0x0(%rax)

0000000000400f30 <__do_global_dtors_aux>:
  400f30:	80 3d 81 45 20 00 00 	cmpb   $0x0,0x204581(%rip)        # 6054b8 <completed.6337>
  400f37:	75 11                	jne    400f4a <__do_global_dtors_aux+0x1a>
  400f39:	55                   	push   %rbp
  400f3a:	48 89 e5             	mov    %rsp,%rbp
  400f3d:	e8 7e ff ff ff       	callq  400ec0 <deregister_tm_clones>
  400f42:	5d                   	pop    %rbp
  400f43:	c6 05 6e 45 20 00 01 	movb   $0x1,0x20456e(%rip)        # 6054b8 <completed.6337>
  400f4a:	f3 c3                	repz retq 
  400f4c:	0f 1f 40 00          	nopl   0x0(%rax)

0000000000400f50 <frame_dummy>:
  400f50:	48 83 3d b8 3e 20 00 	cmpq   $0x0,0x203eb8(%rip)        # 604e10 <__JCR_END__>
  400f57:	00 
  400f58:	74 1e                	je     400f78 <frame_dummy+0x28>
  400f5a:	b8 00 00 00 00       	mov    $0x0,%eax
  400f5f:	48 85 c0             	test   %rax,%rax
  400f62:	74 14                	je     400f78 <frame_dummy+0x28>
  400f64:	55                   	push   %rbp
  400f65:	bf 10 4e 60 00       	mov    $0x604e10,%edi
  400f6a:	48 89 e5             	mov    %rsp,%rbp
  400f6d:	ff d0                	callq  *%rax
  400f6f:	5d                   	pop    %rbp
  400f70:	e9 7b ff ff ff       	jmpq   400ef0 <register_tm_clones>
  400f75:	0f 1f 00             	nopl   (%rax)
  400f78:	e9 73 ff ff ff       	jmpq   400ef0 <register_tm_clones>
  400f7d:	0f 1f 00             	nopl   (%rax)

0000000000400f80 <usage>:
  400f80:	48 83 ec 08          	sub    $0x8,%rsp
  400f84:	48 89 fe             	mov    %rdi,%rsi
  400f87:	83 3d 5a 45 20 00 00 	cmpl   $0x0,0x20455a(%rip)        # 6054e8 <is_checker>
  400f8e:	74 39                	je     400fc9 <usage+0x49>
  400f90:	bf c8 2d 40 00       	mov    $0x402dc8,%edi
  400f95:	b8 00 00 00 00       	mov    $0x0,%eax
  400f9a:	e8 51 fd ff ff       	callq  400cf0 <printf@plt>
  400f9f:	bf 00 2e 40 00       	mov    $0x402e00,%edi
  400fa4:	e8 17 fd ff ff       	callq  400cc0 <puts@plt>
  400fa9:	bf 38 2f 40 00       	mov    $0x402f38,%edi
  400fae:	e8 0d fd ff ff       	callq  400cc0 <puts@plt>
  400fb3:	bf 28 2e 40 00       	mov    $0x402e28,%edi
  400fb8:	e8 03 fd ff ff       	callq  400cc0 <puts@plt>
  400fbd:	bf 52 2f 40 00       	mov    $0x402f52,%edi
  400fc2:	e8 f9 fc ff ff       	callq  400cc0 <puts@plt>
  400fc7:	eb 2d                	jmp    400ff6 <usage+0x76>
  400fc9:	bf 6e 2f 40 00       	mov    $0x402f6e,%edi
  400fce:	b8 00 00 00 00       	mov    $0x0,%eax
  400fd3:	e8 18 fd ff ff       	callq  400cf0 <printf@plt>
  400fd8:	bf 50 2e 40 00       	mov    $0x402e50,%edi
  400fdd:	e8 de fc ff ff       	callq  400cc0 <puts@plt>
  400fe2:	bf 78 2e 40 00       	mov    $0x402e78,%edi
  400fe7:	e8 d4 fc ff ff       	callq  400cc0 <puts@plt>
  400fec:	bf 8c 2f 40 00       	mov    $0x402f8c,%edi
  400ff1:	e8 ca fc ff ff       	callq  400cc0 <puts@plt>
  400ff6:	bf 00 00 00 00       	mov    $0x0,%edi
  400ffb:	e8 50 fe ff ff       	callq  400e50 <exit@plt>

0000000000401000 <initialize_target>:
  401000:	55                   	push   %rbp
  401001:	53                   	push   %rbx
  401002:	48 81 ec 08 21 00 00 	sub    $0x2108,%rsp
  401009:	89 f5                	mov    %esi,%ebp
  40100b:	89 3d c7 44 20 00    	mov    %edi,0x2044c7(%rip)        # 6054d8 <check_level>
  401011:	8b 3d 31 41 20 00    	mov    0x204131(%rip),%edi        # 605148 <target_id>
  401017:	e8 03 1d 00 00       	callq  402d1f <gencookie>
  40101c:	89 05 c2 44 20 00    	mov    %eax,0x2044c2(%rip)        # 6054e4 <cookie>
  401022:	89 c7                	mov    %eax,%edi
  401024:	e8 f6 1c 00 00       	callq  402d1f <gencookie>
  401029:	89 05 b1 44 20 00    	mov    %eax,0x2044b1(%rip)        # 6054e0 <authkey>
  40102f:	8b 05 13 41 20 00    	mov    0x204113(%rip),%eax        # 605148 <target_id>
  401035:	8d 78 01             	lea    0x1(%rax),%edi
  401038:	e8 53 fc ff ff       	callq  400c90 <srandom@plt>
  40103d:	e8 6e fd ff ff       	callq  400db0 <random@plt>
  401042:	89 c7                	mov    %eax,%edi
  401044:	e8 75 02 00 00       	callq  4012be <scramble>
  401049:	89 c3                	mov    %eax,%ebx
  40104b:	85 ed                	test   %ebp,%ebp
  40104d:	74 18                	je     401067 <initialize_target+0x67>
  40104f:	bf 00 00 00 00       	mov    $0x0,%edi
  401054:	e8 47 fd ff ff       	callq  400da0 <time@plt>
  401059:	89 c7                	mov    %eax,%edi
  40105b:	e8 30 fc ff ff       	callq  400c90 <srandom@plt>
  401060:	e8 4b fd ff ff       	callq  400db0 <random@plt>
  401065:	eb 05                	jmp    40106c <initialize_target+0x6c>
  401067:	b8 00 00 00 00       	mov    $0x0,%eax
  40106c:	01 c3                	add    %eax,%ebx
  40106e:	0f b7 db             	movzwl %bx,%ebx
  401071:	8d 04 dd 00 01 00 00 	lea    0x100(,%rbx,8),%eax
  401078:	89 c0                	mov    %eax,%eax
  40107a:	48 89 05 ff 43 20 00 	mov    %rax,0x2043ff(%rip)        # 605480 <buf_offset>
  401081:	c6 05 80 50 20 00 72 	movb   $0x72,0x205080(%rip)        # 606108 <target_prefix>
  401088:	83 3d f9 43 20 00 00 	cmpl   $0x0,0x2043f9(%rip)        # 605488 <notify>
  40108f:	74 60                	je     4010f1 <initialize_target+0xf1>
  401091:	83 3d 50 44 20 00 00 	cmpl   $0x0,0x204450(%rip)        # 6054e8 <is_checker>
  401098:	75 57                	jne    4010f1 <initialize_target+0xf1>
  40109a:	be 00 01 00 00       	mov    $0x100,%esi
  40109f:	48 89 e7             	mov    %rsp,%rdi
  4010a2:	e8 89 fd ff ff       	callq  400e30 <gethostname@plt>
  4010a7:	85 c0                	test   %eax,%eax
  4010a9:	74 14                	je     4010bf <initialize_target+0xbf>
  4010ab:	bf a8 2e 40 00       	mov    $0x402ea8,%edi
  4010b0:	e8 0b fc ff ff       	callq  400cc0 <puts@plt>
  4010b5:	bf 08 00 00 00       	mov    $0x8,%edi
  4010ba:	e8 91 fd ff ff       	callq  400e50 <exit@plt>
  4010bf:	48 8d bc 24 00 01 00 	lea    0x100(%rsp),%rdi
  4010c6:	00 
  4010c7:	e8 ea 19 00 00       	callq  402ab6 <init_driver>
  4010cc:	85 c0                	test   %eax,%eax
  4010ce:	79 21                	jns    4010f1 <initialize_target+0xf1>
  4010d0:	48 8d b4 24 00 01 00 	lea    0x100(%rsp),%rsi
  4010d7:	00 
  4010d8:	bf e0 2e 40 00       	mov    $0x402ee0,%edi
  4010dd:	b8 00 00 00 00       	mov    $0x0,%eax
  4010e2:	e8 09 fc ff ff       	callq  400cf0 <printf@plt>
  4010e7:	bf 08 00 00 00       	mov    $0x8,%edi
  4010ec:	e8 5f fd ff ff       	callq  400e50 <exit@plt>
  4010f1:	48 81 c4 08 21 00 00 	add    $0x2108,%rsp
  4010f8:	5b                   	pop    %rbx
  4010f9:	5d                   	pop    %rbp
  4010fa:	c3                   	retq   

00000000004010fb <main>:
  4010fb:	41 56                	push   %r14
  4010fd:	41 55                	push   %r13
  4010ff:	41 54                	push   %r12
  401101:	55                   	push   %rbp
  401102:	53                   	push   %rbx
  401103:	41 89 fc             	mov    %edi,%r12d
  401106:	48 89 f3             	mov    %rsi,%rbx
  401109:	be b1 1e 40 00       	mov    $0x401eb1,%esi
  40110e:	bf 0b 00 00 00       	mov    $0xb,%edi
  401113:	e8 38 fc ff ff       	callq  400d50 <signal@plt>
  401118:	be 63 1e 40 00       	mov    $0x401e63,%esi
  40111d:	bf 07 00 00 00       	mov    $0x7,%edi
  401122:	e8 29 fc ff ff       	callq  400d50 <signal@plt>
  401127:	be ff 1e 40 00       	mov    $0x401eff,%esi
  40112c:	bf 04 00 00 00       	mov    $0x4,%edi
  401131:	e8 1a fc ff ff       	callq  400d50 <signal@plt>
  401136:	83 3d ab 43 20 00 00 	cmpl   $0x0,0x2043ab(%rip)        # 6054e8 <is_checker>
  40113d:	74 20                	je     40115f <main+0x64>
  40113f:	be 4d 1f 40 00       	mov    $0x401f4d,%esi
  401144:	bf 0e 00 00 00       	mov    $0xe,%edi
  401149:	e8 02 fc ff ff       	callq  400d50 <signal@plt>
  40114e:	bf 05 00 00 00       	mov    $0x5,%edi
  401153:	e8 b8 fb ff ff       	callq  400d10 <alarm@plt>
  401158:	bd aa 2f 40 00       	mov    $0x402faa,%ebp
  40115d:	eb 05                	jmp    401164 <main+0x69>
  40115f:	bd a5 2f 40 00       	mov    $0x402fa5,%ebp
  401164:	48 8b 05 35 43 20 00 	mov    0x204335(%rip),%rax        # 6054a0 <stdin@@GLIBC_2.2.5>
  40116b:	48 89 05 5e 43 20 00 	mov    %rax,0x20435e(%rip)        # 6054d0 <infile>
  401172:	41 bd 00 00 00 00    	mov    $0x0,%r13d
  401178:	41 be 00 00 00 00    	mov    $0x0,%r14d
  40117e:	e9 b9 00 00 00       	jmpq   40123c <main+0x141>
  401183:	83 e8 61             	sub    $0x61,%eax
  401186:	3c 10                	cmp    $0x10,%al
  401188:	0f 87 93 00 00 00    	ja     401221 <main+0x126>
  40118e:	0f b6 c0             	movzbl %al,%eax
  401191:	ff 24 c5 f0 2f 40 00 	jmpq   *0x402ff0(,%rax,8)
  401198:	48 8b 3b             	mov    (%rbx),%rdi
  40119b:	e8 e0 fd ff ff       	callq  400f80 <usage>
  4011a0:	be 6d 32 40 00       	mov    $0x40326d,%esi
  4011a5:	48 8b 3d fc 42 20 00 	mov    0x2042fc(%rip),%rdi        # 6054a8 <optarg@@GLIBC_2.2.5>
  4011ac:	e8 4f fc ff ff       	callq  400e00 <fopen@plt>
  4011b1:	48 89 05 18 43 20 00 	mov    %rax,0x204318(%rip)        # 6054d0 <infile>
  4011b8:	48 85 c0             	test   %rax,%rax
  4011bb:	75 7f                	jne    40123c <main+0x141>
  4011bd:	48 8b 15 e4 42 20 00 	mov    0x2042e4(%rip),%rdx        # 6054a8 <optarg@@GLIBC_2.2.5>
  4011c4:	be b2 2f 40 00       	mov    $0x402fb2,%esi
  4011c9:	48 8b 3d e0 42 20 00 	mov    0x2042e0(%rip),%rdi        # 6054b0 <stderr@@GLIBC_2.2.5>
  4011d0:	e8 9b fb ff ff       	callq  400d70 <fprintf@plt>
  4011d5:	b8 01 00 00 00       	mov    $0x1,%eax
  4011da:	e9 d6 00 00 00       	jmpq   4012b5 <main+0x1ba>
  4011df:	ba 10 00 00 00       	mov    $0x10,%edx
  4011e4:	be 00 00 00 00       	mov    $0x0,%esi
  4011e9:	48 8b 3d b8 42 20 00 	mov    0x2042b8(%rip),%rdi        # 6054a8 <optarg@@GLIBC_2.2.5>
  4011f0:	e8 2b fc ff ff       	callq  400e20 <strtoul@plt>
  4011f5:	41 89 c6             	mov    %eax,%r14d
  4011f8:	eb 42                	jmp    40123c <main+0x141>
  4011fa:	ba 0a 00 00 00       	mov    $0xa,%edx
  4011ff:	be 00 00 00 00       	mov    $0x0,%esi
  401204:	48 8b 3d 9d 42 20 00 	mov    0x20429d(%rip),%rdi        # 6054a8 <optarg@@GLIBC_2.2.5>
  40120b:	e8 70 fb ff ff       	callq  400d80 <strtol@plt>
  401210:	41 89 c5             	mov    %eax,%r13d
  401213:	eb 27                	jmp    40123c <main+0x141>
  401215:	c7 05 69 42 20 00 00 	movl   $0x0,0x204269(%rip)        # 605488 <notify>
  40121c:	00 00 00 
  40121f:	eb 1b                	jmp    40123c <main+0x141>
  401221:	40 0f be f6          	movsbl %sil,%esi
  401225:	bf cf 2f 40 00       	mov    $0x402fcf,%edi
  40122a:	b8 00 00 00 00       	mov    $0x0,%eax
  40122f:	e8 bc fa ff ff       	callq  400cf0 <printf@plt>
  401234:	48 8b 3b             	mov    (%rbx),%rdi
  401237:	e8 44 fd ff ff       	callq  400f80 <usage>
  40123c:	48 89 ea             	mov    %rbp,%rdx
  40123f:	48 89 de             	mov    %rbx,%rsi
  401242:	44 89 e7             	mov    %r12d,%edi
  401245:	e8 c6 fb ff ff       	callq  400e10 <getopt@plt>
  40124a:	89 c6                	mov    %eax,%esi
  40124c:	3c ff                	cmp    $0xff,%al
  40124e:	0f 85 2f ff ff ff    	jne    401183 <main+0x88>
  401254:	be 01 00 00 00       	mov    $0x1,%esi
  401259:	44 89 ef             	mov    %r13d,%edi
  40125c:	e8 9f fd ff ff       	callq  401000 <initialize_target>
  401261:	83 3d 80 42 20 00 00 	cmpl   $0x0,0x204280(%rip)        # 6054e8 <is_checker>
  401268:	74 25                	je     40128f <main+0x194>
  40126a:	44 3b 35 6f 42 20 00 	cmp    0x20426f(%rip),%r14d        # 6054e0 <authkey>
  401271:	74 1c                	je     40128f <main+0x194>
  401273:	44 89 f6             	mov    %r14d,%esi
  401276:	bf 08 2f 40 00       	mov    $0x402f08,%edi
  40127b:	b8 00 00 00 00       	mov    $0x0,%eax
  401280:	e8 6b fa ff ff       	callq  400cf0 <printf@plt>
  401285:	b8 00 00 00 00       	mov    $0x0,%eax
  40128a:	e8 dc 08 00 00       	callq  401b6b <check_fail>
  40128f:	8b 35 4f 42 20 00    	mov    0x20424f(%rip),%esi        # 6054e4 <cookie>
  401295:	bf e2 2f 40 00       	mov    $0x402fe2,%edi
  40129a:	b8 00 00 00 00       	mov    $0x0,%eax
  40129f:	e8 4c fa ff ff       	callq  400cf0 <printf@plt>
  4012a4:	48 8b 3d d5 41 20 00 	mov    0x2041d5(%rip),%rdi        # 605480 <buf_offset>
  4012ab:	e8 eb 0c 00 00       	callq  401f9b <launch>
  4012b0:	b8 00 00 00 00       	mov    $0x0,%eax
  4012b5:	5b                   	pop    %rbx
  4012b6:	5d                   	pop    %rbp
  4012b7:	41 5c                	pop    %r12
  4012b9:	41 5d                	pop    %r13
  4012bb:	41 5e                	pop    %r14
  4012bd:	c3                   	retq   

 	imul   $0xa062,%eax,%eax
  40131d:	89 44 24 f0          	mov    %eax,-0x10(%rsp)
  401321:	8b 44 24 f0          	mov    -0x10(%rsp),%eax
  401325:	69 c0 04 73 00 00    	imul   $0x7304,%eax,%eax
  40132b:	89 44 24 f0          	mov    %eax,-0x10(%rsp)
  40132f:	8b 44 24 d0          	mov    -0x30(%rsp),%eax
  401333:	69 c0 1a b6 00 00    	imul   $0xb61a,%eax,%eax
  401339:	89 44 24 d0          	mov    %eax,-0x30(%rsp)
  40133d:	8b 44 24 e8          	mov    -0x18(%rsp),%eax
  401341:	69 c0 1c 86 00 00    	imul   $0x861c,%eax,%eax
  401347:	89 44 24 e8          	mov    %eax,-0x18(%rsp)
  40134b:	8b 44 24 e8          	mov    -0x18(%rsp),%eax
  40134f:	69 c0 24 66 00 00    	imul   $0x6624,%eax,%eax
  401355:	89 44 24 e8          	mov    %eax,-0x18(%rsp)
  401359:	8b 44 24 e4          	mov    -0x1c(%rsp),%eax
  40135d:	69 c0 ce cd 00 00    	imul   $0xcdce,%eax,%eax
  401363:	89 44 24 e4          	mov    %eax,-0x1c(%rsp)
  401367:	8b 44 24 dc          	mov    -0x24(%rsp),%eax
  40136b:	69 c0 cf d6 00 00    	imul   $0xd6cf,%eax,%eax
  401371:	89 44 24 dc          	mov    %eax,-0x24(%rsp)
  401375:	8b 44 24 d0          	mov    -0x30(%rsp),%eax
  401379:	69 c0 63 f1 00 00    	imul   $0xf163,%eax,%eax
  40137f:	89 44 24 d0          	mov    %eax,-0x30(%rsp)
  401383:	8b 44 24 dc          	mov    -0x24(%rsp),%eax
  401387:	69 c0 4f f1 00 00    	imul   $0xf14f,%eax,%eax
  40138d:	89 44 24 dc          	mov    %eax,-0x24(%rsp)
  401391:	8b 44 24 ec          	mov    -0x14(%rsp),%eax
  401395:	69 c0 14 dc 00 00    	imul   $0xdc14,%eax,%eax
  40139b:	89 44 24 ec          	mov    %eax,-0x14(%rsp)
  40139f:	8b 44 24 ec          	mov    -0x14(%rsp),%eax
  4013a3:	69 c0 62 6a 00 00    	imul   $0x6a62,%eax,%eax
  4013a9:	89 44 24 ec          	mov    %eax,-0x14(%rsp)
  4013ad:	8b 44 24 f0          	mov    -0x10(%rsp),%eax
  4013b1:	69 c0 0c d5 00 00    	imul   $0xd50c,%eax,%eax
  4013b7:	89 44 24 f0          	mov    %eax,-0x10(%rsp)
  4013bb:	8b 44 24 d4          	mov    -0x2c(%rsp),%eax
  4013bf:	69 c0 37 29 00 00    	imul   $0x2937,%eax,%eax
  4013c5:	89 44 24 d4          	mov    %eax,-0x2c(%rsp)
  4013c9:	8b 44 24 d4          	mov    -0x2c(%rsp),%eax
  4013cd:	69 c0 bc d0 00 00    	imul   $0xd0bc,%eax,%eax
  4013d3:	89 44 24 d4          	mov    %eax,-0x2c(%rsp)
  4013d7:	8b 44 24 e4          	mov    -0x1c(%rsp),%eax
  4013db:	69 c0 12 49 00 00    	imul   $0x4912,%eax,%eax
  4013e1:	89 44 24 e4          	mov    %eax,-0x1c(%rsp)
  4013e5:	8b 44 24 ec          	mov    -0x14(%rsp),%eax
  4013e9:	69 c0 95 6a 00 00    	imul   $0x6a95,%eax,%eax
  4013ef:	89 44 24 ec          	mov    %eax,-0x14(%rsp)
  4013f3:	8b 44 24 e4          	mov    -0x1c(%rsp),%eax
  4013f7:	69 c0 7d 23 00 00    	imul   $0x237d,%eax,%eax
  4013fd:	89 44 24 e4          	mov    %eax,-0x1c(%rsp)
  401401:	8b 44 24 dc          	mov    -0x24(%rsp),%eax
  401405:	69 c0 13 c1 00 00    	imul   $0xc113,%eax,%eax
  40140b:	89 44 24 dc          	mov    %eax,-0x24(%rsp)
  40140f:	8b 44 24 ec          	mov    -0x14(%rsp),%eax
  401413:	69 c0 7d f6 00 00    	imul   $0xf67d,%eax,%eax
  401419:	89 44 24 ec          	mov    %eax,-0x14(%rsp)
  40141d:	8b 44 24 e4          	mov    -0x1c(%rsp),%eax
  401421:	69 c0 71 bc 00 00    	imul   $0xbc71,%eax,%eax
  401427:	89 44 24 e4          	mov    %eax,-0x1c(%rsp)
  40142b:	8b 44 24 e4          	mov    -0x1c(%rsp),%eax
  40142f:	69 c0 9d d8 00 00    	imul   $0xd89d,%eax,%eax
  401435:	89 44 24 e4          	mov    %eax,-0x1c(%rsp)
  401439:	8b 44 24 dc          	mov    -0x24(%rsp),%eax
  40143d:	69 c0 ce 3e 00 00    	imul   $0x3ece,%eax,%eax
  401443:	89 44 24 dc          	mov    %eax,-0x24(%rsp)
  401447:	8b 44 24 dc          	mov    -0x24(%rsp),%eax
  40144b:	69 c0 f4 3a 00 00    	imul   $0x3af4,%eax,%eax
  401451:	89 44 24 dc          	mov    %eax,-0x24(%rsp)
  401455:	8b 44 24 dc          	mov    -0x24(%rsp),%eax
  401459:	69 c0 d9 82 00 00    	imul   $0x82d9,%eax,%eax
  40145f:	89 44 24 dc          	mov    %eax,-0x24(%rsp)
  401463:	8b 44 24 f4          	mov    -0xc(%rsp),%eax
  401467:	69 c0 ab c7 00 00    	imul   $0xc7ab,%eax,%eax
  40146d:	89 44 24 f4          	mov    %eax,-0xc(%rsp)
  401471:	8b 44 24 dc          	mov    -0x24(%rsp),%eax
  401475:	69 c0 72 59 00 00    	imul   $0x5972,%eax,%eax
  40147b:	89 44 24 dc          	mov    %eax,-0x24(%rsp)
  40147f:	8b 44 24 ec          	mov    -0x14(%rsp),%eax
  401483:	69 c0 1c 18 00 00    	imul   $0x181c,%eax,%eax
  401489:	89 44 24 ec          	mov    %eax,-0x14(%rsp)
  40148d:	8b 44 24 f0          	mov    -0x10(%rsp),%eax
  401491:	69 c0 d9 36 00 00    	imul   $0x36d9,%eax,%eax
  401497:	89 44 24 f0          	mov    %eax,-0x10(%rsp)
  40149b:	8b 44 24 dc          	mov    -0x24(%rsp),%eax
  40149f:	69 c0 f8 7a 00 00    	imul   $0x7af8,%eax,%eax
  4014a5:	89 44 24 dc          	mov    %eax,-0x24(%rsp)
  4014a9:	8b 44 24 d0          	mov    -0x30(%rsp),%eax
  4014ad:	69 c0 bb 04 00 00    	imul   $0x4bb,%eax,%eax
  4014b3:	89 44 24 d0          	mov    %eax,-0x30(%rsp)
  4014b7:	8b 44 24 e0          	mov    -0x20(%rsp),%eax
  4014bb:	69 c0 12 6e 00 00    	imul   $0x6e12,%eax,%eax
  4014c1:	89 44 24 e0          	mov    %eax,-0x20(%rsp)
  4014c5:	8b 44 24 dc          	mov    -0x24(%rsp),%eax
  4014c9:	69 c0 7f ad 00 00    	imul   $0xad7f,%eax,%eax
  4014cf:	89 44 24 dc          	mov    %eax,-0x24(%rsp)
  4014d3:	8b 44 24 e0          	mov    -0x20(%rsp),%eax
  4014d7:	69 c0 e9 4c 00 00    	imul   $0x4ce9,%eax,%eax
  4014dd:	89 44 24 e0          	mov    %eax,-0x20(%rsp)
  4014e1:	8b 44 24 f0          	mov    -0x10(%rsp),%eax
  4014e5:	69 c0 26 6b 00 00    	imul   $0x6b26,%eax,%eax
  4014eb:	89 44 24 f0          	mov    %eax,-0x10(%rsp)
  4014ef:	8b 44 24 f4          	mov    -0xc(%rsp),%eax
  4014f3:	69 c0 c1 b5 00 00    	imul   $0xb5c1,%eax,%eax
  4014f9:	89 44 24 f4          	mov    %eax,-0xc(%rsp)
  4014fd:	8b 44 24 ec          	mov    -0x14(%rsp),%eax
  401501:	69 c0 07 a0 00 00    	imul   $0xa007,%eax,%eax
  401507:	89 44 24 ec          	mov    %eax,-0x14(%rsp)
  40150b:	8b 44 24 e8          	mov    -0x18(%rsp),%eax
  40150f:	69 c0 d6 b1 00 00    	imul   $0xb1d6,%eax,%eax
  401515:	89 44 24 e8          	mov    %eax,-0x18(%rsp)
  401519:	8b 44 24 e0          	mov    -0x20(%rsp),%eax
  40151d:	69 c0 cc 3d 00 00    	imul   $0x3dcc,%eax,%eax
  401523:	89 44 24 e0          	mov    %eax,-0x20(%rsp)
  401527:	8b 44 24 f4          	mov    -0xc(%rsp),%eax
  40152b:	69 c0 07 0f 00 00    	imul   $0xf07,%eax,%eax
  401531:	89 44 24 f4          	mov    %eax,-0xc(%rsp)
  401535:	8b 44 24 f0          	mov    -0x10(%rsp),%eax
  401539:	69 c0 0e 19 00 00    	imul   $0x190e,%eax,%eax
  40153f:	89 44 24 f0          	mov    %eax,-0x10(%rsp)
  401543:	8b 44 24 d8          	mov    -0x28(%rsp),%eax
  401547:	69 c0 92 1f 00 00    	imul   $0x1f92,%eax,%eax
  40154d:	89 44 24 d8          	mov    %eax,-0x28(%rsp)
  401551:	8b 44 24 e8          	mov    -0x18(%rsp),%eax
  401555:	69 c0 bf 08 00 00    	imul   $0x8bf,%eax,%eax
  40155b:	89 44 24 e8          	mov    %eax,-0x18(%rsp)
  40155f:	8b 44 24 e8          	mov    -0x18(%rsp),%eax
  401563:	69 c0 ff a0 00 00    	imul   $0xa0ff,%eax,%eax
  401569:	89 44 24 e8          	mov    %eax,-0x18(%rsp)
  40156d:	8b 44 24 f4          	mov    -0xc(%rsp),%eax
  401571:	69 c0 02 79 00 00    	imul   $0x7902,%eax,%eax
  401577:	89 44 24 f4          	mov    %eax,-0xc(%rsp)
  40157b:	8b 44 24 e8          	mov    -0x18(%rsp),%eax
  40157f:	69 c0 2d 47 00 00    	imul   $0x472d,%eax,%eax
  401585:	89 44 24 e8          	mov    %eax,-0x18(%rsp)
  401589:	8b 44 24 d4          	mov    -0x2c(%rsp),%eax
  40158d:	69 c0 02 e0 00 00    	imul   $0xe002,%eax,%eax
  401593:	89 44 24 d4          	mov    %eax,-0x2c(%rsp)
  401597:	8b 44 24 f4          	mov    -0xc(%rsp),%eax
  40159b:	69 c0 0e ed 00 00    	imul   $0xed0e,%eax,%eax
  4015a1:	89 44 24 f4          	mov    %eax,-0xc(%rsp)
  4015a5:	8b 44 24 d8          	mov    -0x28(%rsp),%eax
  4015a9:	69 c0 ce 46 00 00    	imul   $0x46ce,%eax,%eax
  4015af:	89 44 24 d8          	mov    %eax,-0x28(%rsp)
  4015b3:	8b 44 24 e0          	mov    -0x20(%rsp),%eax
  4015b7:	69 c0 14 fc 00 00    	imul   $0xfc14,%eax,%eax
  4015bd:	89 44 24 e0          	mov    %eax,-0x20(%rsp)
  4015c1:	8b 44 24 f4          	mov    -0xc(%rsp),%eax
  4015c5:	69 c0 5e 7d 00 00    	imul   $0x7d5e,%eax,%eax
  4015cb:	89 44 24 f4          	mov    %eax,-0xc(%rsp)
  4015cf:	8b 44 24 f0          	mov    -0x10(%rsp),%eax
  4015d3:	69 c0 8b d9 00 00    	imul   $0xd98b,%eax,%eax
  4015d9:	89 44 24 f0          	mov    %eax,-0x10(%rsp)
  4015dd:	8b 44 24 ec          	mov    -0x14(%rsp),%eax
  4015e1:	69 c0 34 40 00 00    	imul   $0x4034,%eax,%eax
  4015e7:	89 44 24 ec          	mov    %eax,-0x14(%rsp)
  4015eb:	8b 44 24 d0          	mov    -0x30(%rsp),%eax
  4015ef:	69 c0 3c fc 00 00    	imul   $0xfc3c,%eax,%eax
  4015f5:	89 44 24 d0          	mov    %eax,-0x30(%rsp)
  4015f9:	8b 44 24 ec          	mov    -0x14(%rsp),%eax
  4015fd:	69 c0 2c 78 00 00    	imul   $0x782c,%eax,%eax
  401603:	89 44 24 ec          	mov    %eax,-0x14(%rsp)
  401607:	8b 44 24 d8          	mov    -0x28(%rsp),%eax
  40160b:	69 c0 a5 3e 00 00    	imul   $0x3ea5,%eax,%eax
  401611:	89 44 24 d8          	mov    %eax,-0x28(%rsp)
  401615:	8b 44 24 ec          	mov    -0x14(%rsp),%eax
  401619:	69 c0 f6 e1 00 00    	imul   $0xe1f6,%eax,%eax
  40161f:	89 44 24 ec          	mov    %eax,-0x14(%rsp)
  401623:	8b 44 24 d4          	mov    -0x2c(%rsp),%eax
  401627:	69 c0 ba 03 00 00    	imul   $0x3ba,%eax,%eax
  40162d:	89 44 24 d4          	mov    %eax,-0x2c(%rsp)
  401631:	8b 44 24 e8          	mov    -0x18(%rsp),%eax
  401635:	69 c0 e6 95 00 00    	imul   $0x95e6,%eax,%eax
  40163b:	89 44 24 e8          	mov    %eax,-0x18(%rsp)
  40163f:	8b 44 24 d0          	mov    -0x30(%rsp),%eax
  401643:	69 c0 4e 2a 00 00    	imul   $0x2a4e,%eax,%eax
  401649:	89 44 24 d0          	mov    %eax,-0x30(%rsp)
  40164d:	8b 44 24 d4          	mov    -0x2c(%rsp),%eax
  401651:	69 c0 b1 c0 00 00    	imul   $0xc0b1,%eax,%eax
  401657:	89 44 24 d4          	mov    %eax,-0x2c(%rsp)
  40165b:	8b 44 24 ec          	mov    -0x14(%rsp),%eax
  40165f:	69 c0 a6 8c 00 00    	imul   $0x8ca6,%eax,%eax
  401665:	89 44 24 ec          	mov    %eax,-0x14(%rsp)
  401669:	8b 44 24 ec          	mov    -0x14(%rsp),%eax
  40166d:	69 c0 bb 26 00 00    	imul   $0x26bb,%eax,%eax
  401673:	89 44 24 ec          	mov    %eax,-0x14(%rsp)
  401677:	8b 44 24 d4          	mov    -0x2c(%rsp),%eax
  40167b:	69 c0 35 2e 00 00    	imul   $0x2e35,%eax,%eax
  401681:	89 44 24 d4          	mov    %eax,-0x2c(%rsp)
  401685:	8b 44 24 e4          	mov    -0x1c(%rsp),%eax
  401689:	69 c0 ad b3 00 00    	imul   $0xb3ad,%eax,%eax
  40168f:	89 44 24 e4          	mov    %eax,-0x1c(%rsp)
  401693:	8b 44 24 dc          	mov    -0x24(%rsp),%eax
  401697:	69 c0 7e 1f 00 00    	imul   $0x1f7e,%eax,%eax
  40169d:	89 44 24 dc          	mov    %eax,-0x24(%rsp)
  4016a1:	8b 44 24 d4          	mov    -0x2c(%rsp),%eax
  4016a5:	69 c0 1e dc 00 00    	imul   $0xdc1e,%eax,%eax
  4016ab:	89 44 24 d4          	mov    %eax,-0x2c(%rsp)
  4016af:	8b 44 24 dc          	mov    -0x24(%rsp),%eax
  4016b3:	69 c0 71 4e 00 00    	imul   $0x4e71,%eax,%eax
  4016b9:	89 44 24 dc          	mov    %eax,-0x24(%rsp)
  4016bd:	8b 44 24 ec          	mov    -0x14(%rsp),%eax
  4016c1:	69 c0 6b 84 00 00    	imul   $0x846b,%eax,%eax
  4016c7:	89 44 24 ec          	mov    %eax,-0x14(%rsp)
  4016cb:	8b 44 24 e4          	mov    -0x1c(%rsp),%eax
  4016cf:	69 c0 53 9a 00 00    	imul   $0x9a53,%eax,%eax
  4016d5:	89 44 24 e4          	mov    %eax,-0x1c(%rsp)
  4016d9:	8b 44 24 e4          	mov    -0x1c(%rsp),%eax
  4016dd:	69 c0 f1 55 00 00    	imul   $0x55f1,%eax,%eax
  4016e3:	89 44 24 e4          	mov    %eax,-0x1c(%rsp)
  4016e7:	8b 44 24 dc          	mov    -0x24(%rsp),%eax
  4016eb:	69 c0 d1 8d 00 00    	imul   $0x8dd1,%eax,%eax
  4016f1:	89 44 24 dc          	mov    %eax,-0x24(%rsp)
  4016f5:	8b 44 24 dc          	mov    -0x24(%rsp),%eax
  4016f9:	69 c0 30 37 00 00    	imul   $0x3730,%eax,%eax
  4016ff:	89 44 24 dc          	mov    %eax,-0x24(%rsp)
  401703:	8b 44 24 d0          	mov    -0x30(%rsp),%eax
  401707:	69 c0 9c 22 00 00    	imul   $0x229c,%eax,%eax
  40170d:	89 44 24 d0          	mov    %eax,-0x30(%rsp)
  401711:	8b 44 24 e0          	mov    -0x20(%rsp),%eax
  401715:	69 c0 45 36 00 00    	imul   $0x3645,%eax,%eax
  40171b:	89 44 24 e0          	mov    %eax,-0x20(%rsp)
  40171f:	8b 44 24 e4          	mov    -0x1c(%rsp)
0000000000401839 <getbuf>:
  401839:	48 83 ec 28          	sub    $0x28,%rsp
  40183d:	48 89 e7             	mov    %rsp,%rdi
  401840:	e8 55 03 00 00       	callq  401b9a <Gets>
  401845:	b8 01 00 00 00       	mov    $0x1,%eax
  40184a:	48 83 c4 28          	add    $0x28,%rsp
  40184e:	c3                   	retq   

000000000040184f <touch1>:
  40184f:	48 83 ec 08          	sub    $0x8,%rsp
  401853:	c7 05 7f 3c 20 00 01 	movl   $0x1,0x203c7f(%rip)        # 6054dc <vlevel>
  40185a:	00 00 00 
  40185d:	bf c6 30 40 00       	mov    $0x4030c6,%edi
  401862:	e8 59 f4 ff ff       	callq  400cc0 <puts@plt>
  401867:	bf 01 00 00 00       	mov    $0x1,%edi
  40186c:	e8 18 05 00 00       	callq  401d89 <validate>
  401871:	bf 00 00 00 00       	mov    $0x0,%edi
  401876:	e8 d5 f5 ff ff       	callq  400e50 <exit@plt>

000000000040187b <touch2>:
  40187b:	48 83 ec 08          	sub    $0x8,%rsp
  40187f:	89 fe                	mov    %edi,%esi
  401881:	c7 05 51 3c 20 00 02 	movl   $0x2,0x203c51(%rip)        # 6054dc <vlevel>
  401888:	00 00 00 
  40188b:	3b 3d 53 3c 20 00    	cmp    0x203c53(%rip),%edi        # 6054e4 <cookie>
  401891:	75 1b                	jne    4018ae <touch2+0x33>
  401893:	bf e8 30 40 00       	mov    $0x4030e8,%edi
  401898:	b8 00 00 00 00       	mov    $0x0,%eax
  40189d:	e8 4e f4 ff ff       	callq  400cf0 <printf@plt>
  4018a2:	bf 02 00 00 00       	mov    $0x2,%edi
  4018a7:	e8 dd 04 00 00       	callq  401d89 <validate>
  4018ac:	eb 19                	jmp    4018c7 <touch2+0x4c>
  4018ae:	bf 10 31 40 00       	mov    $0x403110,%edi
  4018b3:	b8 00 00 00 00       	mov    $0x0,%eax
  4018b8:	e8 33 f4 ff ff       	callq  400cf0 <printf@plt>
  4018bd:	bf 02 00 00 00       	mov    $0x2,%edi
  4018c2:	e8 74 05 00 00       	callq  401e3b <fail>
  4018c7:	bf 00 00 00 00       	mov    $0x0,%edi
  4018cc:	e8 7f f5 ff ff       	callq  400e50 <exit@plt>

00000000004018d1 <hexmatch>:
  4018d1:	41 54                	push   %r12
  4018d3:	55                   	push   %rbp
  4018d4:	53                   	push   %rbx
  4018d5:	48 83 ec 70          	sub    $0x70,%rsp
  4018d9:	41 89 fc             	mov    %edi,%r12d
  4018dc:	48 89 f5             	mov    %rsi,%rbp
  4018df:	e8 cc f4 ff ff       	callq  400db0 <random@plt>
  4018e4:	48 89 c1             	mov    %rax,%rcx
  4018e7:	48 ba 0b d7 a3 70 3d 	movabs $0xa3d70a3d70a3d70b,%rdx
  4018ee:	0a d7 a3 
  4018f1:	48 f7 ea             	imul   %rdx
  4018f4:	48 8d 04 0a          	lea    (%rdx,%rcx,1),%rax
  4018f8:	48 c1 f8 06          	sar    $0x6,%rax
  4018fc:	48 89 ce             	mov    %rcx,%rsi
  4018ff:	48 c1 fe 3f          	sar    $0x3f,%rsi
  401903:	48 29 f0             	sub    %rsi,%rax
  401906:	48 8d 04 80          	lea    (%rax,%rax,4),%rax
  40190a:	48 8d 04 80          	lea    (%rax,%rax,4),%rax
  40190e:	48 c1 e0 02          	shl    $0x2,%rax
  401912:	48 29 c1             	sub    %rax,%rcx
  401915:	48 8d 1c 0c          	lea    (%rsp,%rcx,1),%rbx
  401919:	44 89 e2             	mov    %r12d,%edx
  40191c:	be e3 30 40 00       	mov    $0x4030e3,%esi
  401921:	48 89 df             	mov    %rbx,%rdi
  401924:	b8 00 00 00 00       	mov    $0x0,%eax
  401929:	e8 12 f5 ff ff       	callq  400e40 <sprintf@plt>
  40192e:	ba 09 00 00 00       	mov    $0x9,%edx
  401933:	48 89 de             	mov    %rbx,%rsi
  401936:	48 89 ef             	mov    %rbp,%rdi
  401939:	e8 62 f3 ff ff       	callq  400ca0 <strncmp@plt>
  40193e:	85 c0                	test   %eax,%eax
  401940:	0f 94 c0             	sete   %al
  401943:	0f b6 c0             	movzbl %al,%eax
  401946:	48 83 c4 70          	add    $0x70,%rsp
  40194a:	5b                   	pop    %rbx
  40194b:	5d                   	pop    %rbp
  40194c:	41 5c                	pop    %r12
  40194e:	c3                   	retq   

000000000040194f <touch3>:
  40194f:	53                   	push   %rbx
  401950:	48 89 fb             	mov    %rdi,%rbx
  401953:	c7 05 7f 3b 20 00 03 	movl   $0x3,0x203b7f(%rip)        # 6054dc <vlevel>
  40195a:	00 00 00 
  40195d:	48 89 fe             	mov    %rdi,%rsi
  401960:	8b 3d 7e 3b 20 00    	mov    0x203b7e(%rip),%edi        # 6054e4 <cookie>
  401966:	e8 66 ff ff ff       	callq  4018d1 <hexmatch>
  40196b:	85 c0                	test   %eax,%eax
  40196d:	74 1e                	je     40198d <touch3+0x3e>
  40196f:	48 89 de             	mov    %rbx,%rsi
  401972:	bf 38 31 40 00       	mov    $0x403138,%edi
  401977:	b8 00 00 00 00       	mov    $0x0,%eax
  40197c:	e8 6f f3 ff ff       	callq  400cf0 <printf@plt>
  401981:	bf 03 00 00 00       	mov    $0x3,%edi
  401986:	e8 fe 03 00 00       	callq  401d89 <validate>
  40198b:	eb 1c                	jmp    4019a9 <touch3+0x5a>
  40198d:	48 89 de             	mov    %rbx,%rsi
  401990:	bf 60 31 40 00       	mov    $0x403160,%edi
  401995:	b8 00 00 00 00       	mov    $0x0,%eax
  40199a:	e8 51 f3 ff ff       	callq  400cf0 <printf@plt>
  40199f:	bf 03 00 00 00       	mov    $0x3,%edi
  4019a4:	e8 92 04 00 00       	callq  401e3b <fail>
  4019a9:	bf 00 00 00 00       	mov    $0x0,%edi
  4019ae:	e8 9d f4 ff ff       	callq  400e50 <exit@plt>

00000000004019b3 <test>:
  4019b3:	48 83 ec 08          	sub    $0x8,%rsp
  4019b7:	b8 00 00 00 00       	mov    $0x0,%eax
  4019bc:	e8 78 fe ff ff       	callq  401839 <getbuf>
  4019c1:	89 c6                	mov    %eax,%esi
  4019c3:	bf 88 31 40 00       	mov    $0x403188,%edi
  4019c8:	b8 00 00 00 00       	mov    $0x0,%eax
  4019cd:	e8 1e f3 ff ff       	callq  400cf0 <printf@plt>
  4019d2:	48 83 c4 08          	add    $0x8,%rsp
  4019d6:	c3                   	retq   

00000000004019d7 <start_farm>:
  4019d7:	b8 01 00 00 00       	mov    $0x1,%eax
  4019dc:	c3                   	retq   

00000000004019dd <getval_379>:
  4019dd:	b8 1e 58 90 90       	mov    $0x9090581e,%eax
  4019e2:	c3                   	retq   

00000000004019e3 <addval_475>:
  4019e3:	8d 87 37 48 89 c7    	lea    -0x3876b7c9(%rdi),%eax
  4019e9:	c3                   	retq   

00000000004019ea <setval_431>:
  4019ea:	c7 07 48 89 c7 c3    	movl   $0xc3c78948,(%rdi)
  4019f0:	c3                   	retq   

00000000004019f1 <getval_398>:
  4019f1:	b8 48 89 c7 92       	mov    $0x92c78948,%eax
  4019f6:	c3                   	retq   

00000000004019f7 <addval_243>:
  4019f7:	8d 87 58 90 c3 1b    	lea    0x1bc39058(%rdi),%eax
  4019fd:	c3                   	retq   

00000000004019fe <addval_289>:
  4019fe:	8d 87 e9 58 94 90    	lea    -0x6f6ba717(%rdi),%eax
  401a04:	c3                   	retq   

0000000000401a05 <addval_467>:
  401a05:	8d 87 a4 48 8d c7    	lea    -0x3872b75c(%rdi),%eax
  401a0b:	c3                   	retq   

0000000000401a0c <getval_372>:
  401a0c:	b8 0c d8 c3 6b       	mov    $0x6bc3d80c,%eax
  401a11:	c3                   	retq   

0000000000401a12 <mid_farm>:
  401a12:	b8 01 00 00 00       	mov    $0x1,%eax
  401a17:	c3                   	retq   

0000000000401a18 <add_xy>:
  401a18:	48 8d 04 37          	lea    (%rdi,%rsi,1),%rax
  401a1c:	c3                   	retq   

0000000000401a1d <addval_165>:
  401a1d:	8d 87 48 89 e0 c2    	lea    -0x3d1f76b8(%rdi),%eax
  401a23:	c3                   	retq   

0000000000401a24 <addval_390>:
  401a24:	8d 87 82 89 c2 c3    	lea    -0x3c3d767e(%rdi),%eax
  401a2a:	c3                   	retq   

0000000000401a2b <addval_141>:
  401a2b:	8d 87 48 89 e0 90    	lea    -0x6f1f76b8(%rdi),%eax
  401a31:	c3                   	retq   

0000000000401a32 <setval_405>:
  401a32:	c7 07 8d ce 08 c0    	movl   $0xc008ce8d,(%rdi)
  401a38:	c3                   	retq   

0000000000401a39 <setval_364>:
  401a39:	c7 07 89 c2 94 d2    	movl   $0xd294c289,(%rdi)
  401a3f:	c3                   	retq   

0000000000401a40 <getval_423>:
  401a40:	b8 2c 81 c2 c3       	mov    $0xc3c2812c,%eax
  401a45:	c3                   	retq   

0000000000401a46 <setval_124>:
  401a46:	c7 07 c8 89 e0 90    	movl   $0x90e089c8,(%rdi)
  401a4c:	c3                   	retq   

0000000000401a4d <addval_292>:
  401a4d:	8d 87 89 ce 60 d2    	lea    -0x2d9f3177(%rdi),%eax
  401a53:	c3                   	retq   

0000000000401a54 <setval_499>:
  401a54:	c7 07 89 c2 90 c3    	movl   $0xc390c289,(%rdi)
  401a5a:	c3                   	retq   

0000000000401a5b <addval_193>:
  401a5b:	8d 87 88 c2 84 c0    	lea    -0x3f7b3d78(%rdi),%eax
  401a61:	c3                   	retq   

0000000000401a62 <setval_239>:
  401a62:	c7 07 8b d1 20 d2    	movl   $0xd220d18b,(%rdi)
  401a68:	c3                   	retq   

0000000000401a69 <setval_347>:
  401a69:	c7 07 88 d1 c3 e3    	movl   $0xe3c3d188,(%rdi)
  401a6f:	c3                   	retq   

0000000000401a70 <addval_432>:
  401a70:	8d 87 48 89 e0 c1    	lea    -0x3e1f76b8(%rdi),%eax
  401a76:	c3                   	retq   

0000000000401a77 <addval_293>:
  401a77:	8d 87 89 d1 38 c0    	lea    -0x3fc72e77(%rdi),%eax
  401a7d:	c3                   	retq   

0000000000401a7e <addval_302>:
  401a7e:	8d 87 89 d1 60 c9    	lea    -0x369f2e77(%rdi),%eax
  401a84:	c3                   	retq   

0000000000401a85 <addval_376>:
  401a85:	8d 87 48 89 e0 91    	lea    -0x6e1f76b8(%rdi),%eax
  401a8b:	c3                   	retq   

0000000000401a8c <addval_286>:
  401a8c:	8d 87 7a de 89 ce    	lea    -0x31762186(%rdi),%eax
  401a92:	c3                   	retq   

0000000000401a93 <getval_403>:
  401a93:	b8 89 c2 c2 5e       	mov    $0x5ec2c289,%eax
  401a98:	c3                   	retq   

0000000000401a99 <setval_440>:
  401a99:	c7 07 f5 48 99 e0    	movl   $0xe09948f5,(%rdi)
  401a9f:	c3                   	retq   

0000000000401aa0 <setval_315>:
  401aa0:	c7 07 09 ce 90 c3    	movl   $0xc390ce09,(%rdi)
  401aa6:	c3                   	retq   

0000000000401aa7 <setval_414>:
  401aa7:	c7 07 8d ce 08 c0    	movl   $0xc008ce8d,(%rdi)
  401aad:	c3                   	retq   

0000000000401aae <setval_450>:
  401aae:	c7 07 8d d1 20 db    	movl   $0xdb20d18d,(%rdi)
  401ab4:	c3                   	retq   

0000000000401ab5 <setval_194>:
  401ab5:	c7 07 89 ce 91 90    	movl   $0x9091ce89,(%rdi)
  401abb:	c3                   	retq   

0000000000401abc <setval_191>:
  401abc:	c7 07 89 ce 18 db    	movl   $0xdb18ce89,(%rdi)
  401ac2:	c3                   	retq   

0000000000401ac3 <setval_131>:
  401ac3:	c7 07 89 ce 90 90    	movl   $0x9090ce89,(%rdi)
  401ac9:	c3                   	retq   

0000000000401aca <getval_185>:
  401aca:	b8 89 c2 c2 52       	mov    $0x52c2c289,%eax
  401acf:	c3                   	retq   

0000000000401ad0 <addval_336>:
  401ad0:	8d 87 89 d1 92 c3    	lea    -0x3c6d2e77(%rdi),%eax
  401ad6:	c3                   	retq   

0000000000401ad7 <getval_433>:
  401ad7:	b8 a9 48 89 e0       	mov    $0xe08948a9,%eax
  401adc:	c3                   	retq   

0000000000401add <setval_455>:
  401add:	c7 07 89 c2 78 d2    	movl   $0xd278c289,(%rdi)
  401ae3:	c3                   	retq   

0000000000401ae4 <setval_155>:
  401ae4:	c7 07 89 d1 08 db    	movl   $0xdb08d189,(%rdi)
  401aea:	c3                   	retq   

0000000000401aeb <getval_180>:
  401aeb:	b8 48 89 e0 c2       	mov    $0xc2e08948,%eax
  401af0:	c3                   	retq   

0000000000401af1 <getval_149>:
  401af1:	b8 99 d1 08 c9       	mov    $0xc908d199,%eax
  401af6:	c3                   	retq   

0000000000401af7 <end_farm>:
  401af7:	b8 01 00 00 00       	mov    $0x1,%eax
  401afc:	c3                   	retq   
  401afd:	0f 1f 00             	nopl   (%rax)

0000000000401b00 <save_char>:
  401b00:	8b 05 fe 45 20 00    	mov    0x2045fe(%rip),%eax        # 606104 <gets_cnt>
  401b06:	3d ff 03 00 00       	cmp    $0x3ff,%eax
  401b0b:	7f 49                	jg     401b56 <save_char+0x56>
  401b0d:	8d 14 40             	lea    (%rax,%rax,2),%edx
  401b10:	89 f9                	mov    %edi,%ecx
  401b12:	c0 e9 04             	shr    $0x4,%cl
  401b15:	83 e1 0f             	and    $0xf,%ecx
  401b18:	0f b6 b1 b0 34 40 00 	movzbl 0x4034b0(%rcx),%esi
  401b1f:	48 63 ca             	movslq %edx,%rcx
  401b22:	40 88 b1 00 55 60 00 	mov    %sil,0x605500(%rcx)
  401b29:	8d 4a 01             	lea    0x1(%rdx),%ecx
  401b2c:	83 e7 0f             	and    $0xf,%edi
  401b2f:	0f b6 b7 b0 34 40 00 	movzbl 0x4034b0(%rdi),%esi
  401b36:	48 63 c9             	movslq %ecx,%rcx
  401b39:	40 88 b1 00 55 60 00 	mov    %sil,0x605500(%rcx)
  401b40:	83 c2 02             	add    $0x2,%edx
  401b43:	48 63 d2             	movslq %edx,%rdx
  401b46:	c6 82 00 55 60 00 20 	movb   $0x20,0x605500(%rdx)
  401b4d:	83 c0 01             	add    $0x1,%eax
  401b50:	89 05 ae 45 20 00    	mov    %eax,0x2045ae(%rip)        # 606104 <gets_cnt>
  401b56:	f3 c3                	repz retq 

0000000000401b58 <save_term>:
  401b58:	8b 05 a6 45 20 00    	mov    0x2045a6(%rip),%eax        # 606104 <gets_cnt>
  401b5e:	8d 04 40             	lea    (%rax,%rax,2),%eax
  401b61:	48 98                	cltq   
  401b63:	c6 80 00 55 60 00 00 	movb   $0x0,0x605500(%rax)
  401b6a:	c3                   	retq   

0000000000401b6b <check_fail>:
  401b6b:	48 83 ec 08          	sub    $0x8,%rsp
  401b6f:	0f be 35 92 45 20 00 	movsbl 0x204592(%rip),%esi        # 606108 <target_prefix>
  401b76:	b9 00 55 60 00       	mov    $0x605500,%ecx
  401b7b:	8b 15 57 39 20 00    	mov    0x203957(%rip),%edx        # 6054d8 <check_level>
  401b81:	bf ab 31 40 00       	mov    $0x4031ab,%edi
  401b86:	b8 00 00 00 00       	mov    $0x0,%eax
  401b8b:	e8 60 f1 ff ff       	callq  400cf0 <printf@plt>
  401b90:	bf 01 00 00 00       	mov    $0x1,%edi
  401b95:	e8 b6 f2 ff ff       	callq  400e50 <exit@plt>

0000000000401b9a <Gets>:
  401b9a:	41 54                	push   %r12
  401b9c:	55                   	push   %rbp
  401b9d:	53                   	push   %rbx
  401b9e:	49 89 fc             	mov    %rdi,%r12
  401ba1:	c7 05 59 45 20 00 00 	movl   $0x0,0x204559(%rip)        # 606104 <gets_cnt>
  401ba8:	00 00 00 
  401bab:	48 89 fb             	mov    %rdi,%rbx
  401bae:	eb 11                	jmp    401bc1 <Gets+0x27>
  401bb0:	48 8d 6b 01          	lea    0x1(%rbx),%rbp
  401bb4:	88 03                	mov    %al,(%rbx)
  401bb6:	0f b6 f8             	movzbl %al,%edi
  401bb9:	e8 42 ff ff ff       	callq  401b00 <save_char>
  401bbe:	48 89 eb             	mov    %rbp,%rbx
  401bc1:	48 8b 3d 08 39 20 00 	mov    0x203908(%rip),%rdi        # 6054d0 <infile>
  401bc8:	e8 f3 f1 ff ff       	callq  400dc0 <_IO_getc@plt>
  401bcd:	83 f8 ff             	cmp    $0xffffffff,%eax
  401bd0:	74 05                	je     401bd7 <Gets+0x3d>
  401bd2:	83 f8 0a             	cmp    $0xa,%eax
  401bd5:	75 d9                	jne    401bb0 <Gets+0x16>
  401bd7:	c6 03 00             	movb   $0x0,(%rbx)
  401bda:	b8 00 00 00 00       	mov    $0x0,%eax
  401bdf:	e8 74 ff ff ff       	callq  401b58 <save_term>
  401be4:	4c 89 e0             	mov    %r12,%rax
  401be7:	5b                   	pop    %rbx
  401be8:	5d                   	pop    %rbp
  401be9:	41 5c                	pop    %r12
  401beb:	c3                   	retq   

0000000000401bec <notify_server>:
  401bec:	83 3d f5 38 20 00 00 	cmpl   $0x0,0x2038f5(%rip)        # 6054e8 <is_checker>
  401bf3:	0f 85 8e 01 00 00    	jne    401d87 <notify_server+0x19b>
  401bf9:	53                   	push   %rbx
  401bfa:	48 81 ec 10 40 00 00 	sub    $0x4010,%rsp
  401c01:	89 fb                	mov    %edi,%ebx
  401c03:	8b 05 fb 44 20 00    	mov    0x2044fb(%rip),%eax        # 606104 <gets_cnt>
  401c09:	83 c0 64             	add    $0x64,%eax
  401c0c:	3d 00 20 00 00       	cmp    $0x2000,%eax
  401c11:	7e 19                	jle    401c2c <notify_server+0x40>
  401c13:	bf e0 32 40 00       	mov    $0x4032e0,%edi
  401c18:	b8 00 00 00 00       	mov    $0x0,%eax
  401c1d:	e8 ce f0 ff ff       	callq  400cf0 <printf@plt>
  401c22:	bf 01 00 00 00       	mov    $0x1,%edi
  401c27:	e8 24 f2 ff ff       	callq  400e50 <exit@plt>
  401c2c:	44 0f be 0d d4 44 20 	movsbl 0x2044d4(%rip),%r9d        # 606108 <target_prefix>
  401c33:	00 
  401c34:	83 3d 4d 38 20 00 00 	cmpl   $0x0,0x20384d(%rip)        # 605488 <notify>
  401c3b:	74 09                	je     401c46 <notify_server+0x5a>
  401c3d:	44 8b 05 9c 38 20 00 	mov    0x20389c(%rip),%r8d        # 6054e0 <authkey>
  401c44:	eb 06                	jmp    401c4c <notify_server+0x60>
  401c46:	41 b8 ff ff ff ff    	mov    $0xffffffff,%r8d
  401c4c:	85 db                	test   %ebx,%ebx
  401c4e:	74 07                	je     401c57 <notify_server+0x6b>
  401c50:	b9 c1 31 40 00       	mov    $0x4031c1,%ecx
  401c55:	eb 05                	jmp    401c5c <notify_server+0x70>
  401c57:	b9 c6 31 40 00       	mov    $0x4031c6,%ecx
  401c5c:	48 c7 44 24 08 00 55 	movq   $0x605500,0x8(%rsp)
  401c63:	60 00 
  401c65:	89 34 24             	mov    %esi,(%rsp)
  401c68:	8b 15 da 34 20 00    	mov    0x2034da(%rip),%edx        # 605148 <target_id>
  401c6e:	be cb 31 40 00       	mov    $0x4031cb,%esi
  401c73:	48 8d bc 24 10 20 00 	lea    0x2010(%rsp),%rdi
  401c7a:	00 
  401c7b:	b8 00 00 00 00       	mov    $0x0,%eax
  401c80:	e8 bb f1 ff ff       	callq  400e40 <sprintf@plt>
  401c85:	83 3d fc 37 20 00 00 	cmpl   $0x0,0x2037fc(%rip)        # 605488 <notify>
  401c8c:	74 78                	je     401d06 <notify_server+0x11a>
  401c8e:	85 db                	test   %ebx,%ebx
  401c90:	74 68                	je     401cfa <notify_server+0x10e>
  401c92:	4c 8d 4c 24 10       	lea    0x10(%rsp),%r9
  401c97:	41 b8 00 00 00 00    	mov    $0x0,%r8d
  401c9d:	48 8d 8c 24 10 20 00 	lea    0x2010(%rsp),%rcx
  401ca4:	00 
  401ca5:	48 8b 15 a4 34 20 00 	mov    0x2034a4(%rip),%rdx        # 605150 <lab>
  401cac:	48 8b 35 a5 34 20 00 	mov    0x2034a5(%rip),%rsi        # 605158 <course>
  401cb3:	48 8b 3d 86 34 20 00 	mov    0x203486(%rip),%rdi        # 605140 <user_id>
  401cba:	e8 c0 0f 00 00       	callq  402c7f <driver_post>
  401cbf:	85 c0                	test   %eax,%eax
  401cc1:	79 1e                	jns    401ce1 <notify_server+0xf5>
  401cc3:	48 8d 74 24 10       	lea    0x10(%rsp),%rsi
  401cc8:	bf e7 31 40 00       	mov    $0x4031e7,%edi
  401ccd:	b8 00 00 00 00       	mov    $0x0,%eax
  401cd2:	e8 19 f0 ff ff       	callq  400cf0 <printf@plt>
  401cd7:	bf 01 00 00 00       	mov    $0x1,%edi
  401cdc:	e8 6f f1 ff ff       	callq  400e50 <exit@plt>
  401ce1:	bf 10 33 40 00       	mov    $0x403310,%edi
  401ce6:	e8 d5 ef ff ff       	callq  400cc0 <puts@plt>
  401ceb:	bf f3 31 40 00       	mov    $0x4031f3,%edi
  401cf0:	e8 cb ef ff ff       	callq  400cc0 <puts@plt>
  401cf5:	e9 85 00 00 00       	jmpq   401d7f <notify_server+0x193>
  401cfa:	bf fd 31 40 00       	mov    $0x4031fd,%edi
  401cff:	e8 bc ef ff ff       	callq  400cc0 <puts@plt>
  401d04:	eb 79                	jmp    401d7f <notify_server+0x193>
  401d06:	85 db                	test   %ebx,%ebx
  401d08:	74 08                	je     401d12 <notify_server+0x126>
  401d0a:	be c1 31 40 00       	mov    $0x4031c1,%esi
  401d0f:	90                   	nop
  401d10:	eb 05                	jmp    401d17 <notify_server+0x12b>
  401d12:	be c6 31 40 00       	mov    $0x4031c6,%esi
  401d17:	bf 48 33 40 00       	mov    $0x403348,%edi
  401d1c:	b8 00 00 00 00       	mov    $0x0,%eax
  401d21:	e8 ca ef ff ff       	callq  400cf0 <printf@plt>
  401d26:	48 8b 35 13 34 20 00 	mov    0x203413(%rip),%rsi        # 605140 <user_id>
  401d2d:	bf 04 32 40 00       	mov    $0x403204,%edi
  401d32:	b8 00 00 00 00       	mov    $0x0,%eax
  401d37:	e8 b4 ef ff ff       	callq  400cf0 <printf@plt>
  401d3c:	48 8b 35 15 34 20 00 	mov    0x203415(%rip),%rsi        # 605158 <course>
  401d43:	bf 11 32 40 00       	mov    $0x403211,%edi
  401d48:	b8 00 00 00 00       	mov    $0x0,%eax
  401d4d:	e8 9e ef ff ff       	callq  400cf0 <printf@plt>
  401d52:	48 8b 35 f7 33 20 00 	mov    0x2033f7(%rip),%rsi        # 605150 <lab>
  401d59:	bf 1d 32 40 00       	mov    $0x40321d,%edi
  401d5e:	b8 00 00 00 00       	mov    $0x0,%eax
  401d63:	e8 88 ef ff ff       	callq  400cf0 <printf@plt>
  401d68:	48 8d b4 24 10 20 00 	lea    0x2010(%rsp),%rsi
  401d6f:	00 
  401d70:	bf 26 32 40 00       	mov    $0x403226,%edi
  401d75:	b8 00 00 00 00       	mov    $0x0,%eax
  401d7a:	e8 71 ef ff ff       	callq  400cf0 <printf@plt>
  401d7f:	48 81 c4 10 40 00 00 	add    $0x4010,%rsp
  401d86:	5b                   	pop    %rbx
  401d87:	f3 c3                	repz retq 

0000000000401d89 <validate>:
  401d89:	53                   	push   %rbx
  401d8a:	89 fb                	mov    %edi,%ebx
  401d8c:	83 3d 55 37 20 00 00 	cmpl   $0x0,0x203755(%rip)        # 6054e8 <is_checker>
  401d93:	74 60                	je     401df5 <validate+0x6c>
  401d95:	39 3d 41 37 20 00    	cmp    %edi,0x203741(%rip)        # 6054dc <vlevel>
  401d9b:	74 14                	je     401db1 <validate+0x28>
  401d9d:	bf 32 32 40 00       	mov    $0x403232,%edi
  401da2:	e8 19 ef ff ff       	callq  400cc0 <puts@plt>
  401da7:	b8 00 00 00 00       	mov    $0x0,%eax
  401dac:	e8 ba fd ff ff       	callq  401b6b <check_fail>
  401db1:	8b 35 21 37 20 00    	mov    0x203721(%rip),%esi        # 6054d8 <check_level>
  401db7:	39 fe                	cmp    %edi,%esi
  401db9:	74 1b                	je     401dd6 <validate+0x4d>
  401dbb:	89 fa                	mov    %edi,%edx
  401dbd:	bf 70 33 40 00       	mov    $0x403370,%edi
  401dc2:	b8 00 00 00 00       	mov    $0x0,%eax
  401dc7:	e8 24 ef ff ff       	callq  400cf0 <printf@plt>
  401dcc:	b8 00 00 00 00       	mov    $0x0,%eax
  401dd1:	e8 95 fd ff ff       	callq  401b6b <check_fail>
  401dd6:	0f be 35 2b 43 20 00 	movsbl 0x20432b(%rip),%esi        # 606108 <target_prefix>
  401ddd:	b9 00 55 60 00       	mov    $0x605500,%ecx
  401de2:	89 fa                	mov    %edi,%edx
  401de4:	bf 50 32 40 00       	mov    $0x403250,%edi
  401de9:	b8 00 00 00 00       	mov    $0x0,%eax
  401dee:	e8 fd ee ff ff       	callq  400cf0 <printf@plt>
  401df3:	eb 44                	jmp    401e39 <validate+0xb0>
  401df5:	39 3d e1 36 20 00    	cmp    %edi,0x2036e1(%rip)        # 6054dc <vlevel>
  401dfb:	74 18                	je     401e15 <validate+0x8c>
  401dfd:	bf 32 32 40 00       	mov    $0x403232,%edi
  401e02:	e8 b9 ee ff ff       	callq  400cc0 <puts@plt>
  401e07:	89 de                	mov    %ebx,%esi
  401e09:	bf 00 00 00 00       	mov    $0x0,%edi
  401e0e:	e8 d9 fd ff ff       	callq  401bec <notify_server>
  401e13:	eb 24                	jmp    401e39 <validate+0xb0>
  401e15:	0f be 15 ec 42 20 00 	movsbl 0x2042ec(%rip),%edx        # 606108 <target_prefix>
  401e1c:	89 fe                	mov    %edi,%esi
  401e1e:	bf 98 33 40 00       	mov    $0x403398,%edi
  401e23:	b8 00 00 00 00       	mov    $0x0,%eax
  401e28:	e8 c3 ee ff ff       	callq  400cf0 <printf@plt>
  401e2d:	89 de                	mov    %ebx,%esi
  401e2f:	bf 01 00 00 00       	mov    $0x1,%edi
  401e34:	e8 b3 fd ff ff       	callq  401bec <notify_server>
  401e39:	5b                   	pop    %rbx
  401e3a:	c3                   	retq   

0000000000401e3b <fail>:
  401e3b:	48 83 ec 08          	sub    $0x8,%rsp
  401e3f:	83 3d a2 36 20 00 00 	cmpl   $0x0,0x2036a2(%rip)        # 6054e8 <is_checker>
  401e46:	74 0a                	je     401e52 <fail+0x17>
  401e48:	b8 00 00 00 00       	mov    $0x0,%eax
  401e4d:	e8 19 fd ff ff       	callq  401b6b <check_fail>
  401e52:	89 fe                	mov    %edi,%esi
  401e54:	bf 00 00 00 00       	mov    $0x0,%edi
  401e59:	e8 8e fd ff ff       	callq  401bec <notify_server>
  401e5e:	48 83 c4 08          	add    $0x8,%rsp
  401e62:	c3                   	retq   

0000000000401e63 <bushandler>:
  401e63:	48 83 ec 08          	sub    $0x8,%rsp
  401e67:	83 3d 7a 36 20 00 00 	cmpl   $0x0,0x20367a(%rip)        # 6054e8 <is_checker>
  401e6e:	74 14                	je     401e84 <bushandler+0x21>
  401e70:	bf 65 32 40 00       	mov    $0x403265,%edi
  401e75:	e8 46 ee ff ff       	callq  400cc0 <puts@plt>
  401e7a:	b8 00 00 00 00       	mov    $0x0,%eax
  401e7f:	e8 e7 fc ff ff       	callq  401b6b <check_fail>
  401e84:	bf d0 33 40 00       	mov    $0x4033d0,%edi
  401e89:	e8 32 ee ff ff       	callq  400cc0 <puts@plt>
  401e8e:	bf 6f 32 40 00       	mov    $0x40326f,%edi
  401e93:	e8 28 ee ff ff       	callq  400cc0 <puts@plt>
  401e98:	be 00 00 00 00       	mov    $0x0,%esi
  401e9d:	bf 00 00 00 00       	mov    $0x0,%edi
  401ea2:	e8 45 fd ff ff       	callq  401bec <notify_server>
  401ea7:	bf 01 00 00 00       	mov    $0x1,%edi
  401eac:	e8 9f ef ff ff       	callq  400e50 <exit@plt>

0000000000401eb1 <seghandler>:
  401eb1:	48 83 ec 08          	sub    $0x8,%rsp
  401eb5:	83 3d 2c 36 20 00 00 	cmpl   $0x0,0x20362c(%rip)        # 6054e8 <is_checker>
  401ebc:	74 14                	je     401ed2 <seghandler+0x21>
  401ebe:	bf 85 32 40 00       	mov    $0x403285,%edi
  401ec3:	e8 f8 ed ff ff       	callq  400cc0 <puts@plt>
  401ec8:	b8 00 00 00 00       	mov    $0x0,%eax
  401ecd:	e8 99 fc ff ff       	callq  401b6b <check_fail>
  401ed2:	bf f0 33 40 00       	mov    $0x4033f0,%edi
  401ed7:	e8 e4 ed ff ff       	callq  400cc0 <puts@plt>
  401edc:	bf 6f 32 40 00       	mov    $0x40326f,%edi
  401ee1:	e8 da ed ff ff       	callq  400cc0 <puts@plt>
  401ee6:	be 00 00 00 00       	mov    $0x0,%esi
  401eeb:	bf 00 00 00 00       	mov    $0x0,%edi
  401ef0:	e8 f7 fc ff ff       	callq  401bec <notify_server>
  401ef5:	bf 01 00 00 00       	mov    $0x1,%edi
  401efa:	e8 51 ef ff ff       	callq  400e50 <exit@plt>

0000000000401eff <illegalhandler>:
  401eff:	48 83 ec 08          	sub    $0x8,%rsp
  401f03:	83 3d de 35 20 00 00 	cmpl   $0x0,0x2035de(%rip)        # 6054e8 <is_checker>
  401f0a:	74 14                	je     401f20 <illegalhandler+0x21>
  401f0c:	bf 98 32 40 00       	mov    $0x403298,%edi
  401f11:	e8 aa ed ff ff       	callq  400cc0 <puts@plt>
  401f16:	b8 00 00 00 00       	mov    $0x0,%eax
  401f1b:	e8 4b fc ff ff       	callq  401b6b <check_fail>
  401f20:	bf 18 34 40 00       	mov    $0x403418,%edi
  401f25:	e8 96 ed ff ff       	callq  400cc0 <puts@plt>
  401f2a:	bf 6f 32 40 00       	mov    $0x40326f,%edi
  401f2f:	e8 8c ed ff ff       	callq  400cc0 <puts@plt>
  401f34:	be 00 00 00 00       	mov    $0x0,%esi
  401f39:	bf 00 00 00 00       	mov    $0x0,%edi
  401f3e:	e8 a9 fc ff ff       	callq  401bec <notify_server>
  401f43:	bf 01 00 00 00       	mov    $0x1,%edi
  401f48:	e8 03 ef ff ff       	callq  400e50 <exit@plt>

0000000000401f4d <sigalrmhandler>:
  401f4d:	48 83 ec 08          	sub    $0x8,%rsp
  401f51:	83 3d 90 35 20 00 00 	cmpl   $0x0,0x203590(%rip)        # 6054e8 <is_checker>
  401f58:	74 14                	je     401f6e <sigalrmhandler+0x21>
  401f5a:	bf ac 32 40 00       	mov    $0x4032ac,%edi
  401f5f:	e8 5c ed ff ff       	callq  400cc0 <puts@plt>
  401f64:	b8 00 00 00 00       	mov    $0x0,%eax
  401f69:	e8 fd fb ff ff       	callq  401b6b <check_fail>
  401f6e:	be 05 00 00 00       	mov    $0x5,%esi
  401f73:	bf 48 34 40 00       	mov    $0x403448,%edi
  401f78:	b8 00 00 00 00       	mov    $0x0,%eax
  401f7d:	e8 6e ed ff ff       	callq  400cf0 <printf@plt>
  401f82:	be 00 00 00 00       	mov    $0x0,%esi
  401f87:	bf 00 00 00 00       	mov    $0x0,%edi
  401f8c:	e8 5b fc ff ff       	callq  401bec <notify_server>
  401f91:	bf 01 00 00 00       	mov    $0x1,%edi
  401f96:	e8 b5 ee ff ff       	callq  400e50 <exit@plt>

0000000000401f9b <launch>:
  401f9b:	55                   	push   %rbp
  401f9c:	48 89 e5             	mov    %rsp,%rbp
  401f9f:	48 89 fa             	mov    %rdi,%rdx
  401fa2:	48 8d 47 1e          	lea    0x1e(%rdi),%rax
  401fa6:	48 83 e0 f0          	and    $0xfffffffffffffff0,%rax
  401faa:	48 29 c4             	sub    %rax,%rsp
  401fad:	48 8d 7c 24 0f       	lea    0xf(%rsp),%rdi
  401fb2:	48 83 e7 f0          	and    $0xfffffffffffffff0,%rdi
  401fb6:	be f4 00 00 00       	mov    $0xf4,%esi
  401fbb:	e8 40 ed ff ff       	callq  400d00 <memset@plt>
  401fc0:	48 8b 05 d9 34 20 00 	mov    0x2034d9(%rip),%rax        # 6054a0 <stdin@@GLIBC_2.2.5>
  401fc7:	48 39 05 02 35 20 00 	cmp    %rax,0x203502(%rip)        # 6054d0 <infile>
  401fce:	75 0f                	jne    401fdf <launch+0x44>
  401fd0:	bf b4 32 40 00       	mov    $0x4032b4,%edi
  401fd5:	b8 00 00 00 00       	mov    $0x0,%eax
  401fda:	e8 11 ed ff ff       	callq  400cf0 <printf@plt>
  401fdf:	c7 05 f3 34 20 00 00 	movl   $0x0,0x2034f3(%rip)        # 6054dc <vlevel>
  401fe6:	00 00 00 
  401fe9:	b8 00 00 00 00       	mov    $0x0,%eax
  401fee:	e8 c0 f9 ff ff       	callq  4019b3 <test>
  401ff3:	83 3d ee 34 20 00 00 	cmpl   $0x0,0x2034ee(%rip)        # 6054e8 <is_checker>
  401ffa:	74 14                	je     402010 <launch+0x75>
  401ffc:	bf c1 32 40 00       	mov    $0x4032c1,%edi
  402001:	e8 ba ec ff ff       	callq  400cc0 <puts@plt>
  402006:	b8 00 00 00 00       	mov    $0x0,%eax
  40200b:	e8 5b fb ff ff       	callq  401b6b <check_fail>
  402010:	bf cc 32 40 00       	mov    $0x4032cc,%edi
  402015:	e8 a6 ec ff ff       	callq  400cc0 <puts@plt>
  40201a:	c9                   	leaveq 
  40201b:	c3                   	retq   

000000000040201c <stable_launch>:
  40201c:	53                   	push   %rbx
  40201d:	48 89 3d a4 34 20 00 	mov    %rdi,0x2034a4(%rip)        # 6054c8 <global_offset>
  402024:	41 b9 00 00 00 00    	mov    $0x0,%r9d
  40202a:	41 b8 00 00 00 00    	mov    $0x0,%r8d
  402030:	b9 32 01 00 00       	mov    $0x132,%ecx
  402035:	ba 07 00 00 00       	mov    $0x7,%edx
  40203a:	be 00 00 10 00       	mov    $0x100000,%esi
  40203f:	bf 00 60 58 55       	mov    $0x55586000,%edi
  402044:	e8 97 ec ff ff       	callq  400ce0 <mmap@plt>
  402049:	48 89 c3             	mov    %rax,%rbx
  40204c:	48 3d 00 60 58 55    	cmp    $0x55586000,%rax
  402052:	74 32                	je     402086 <stable_launch+0x6a>
  402054:	be 00 00 10 00       	mov    $0x100000,%esi
  402059:	48 89 c7             	mov    %rax,%rdi
  40205c:	e8 7f ed ff ff       	callq  400de0 <munmap@plt>
  402061:	ba 00 60 58 55       	mov    $0x55586000,%edx
  402066:	be 80 34 40 00       	mov    $0x403480,%esi
  40206b:	48 8b 3d 3e 34 20 00 	mov    0x20343e(%rip),%rdi        # 6054b0 <stderr@@GLIBC_2.2.5>
  402072:	b8 00 00 00 00       	mov    $0x0,%eax
  402077:	e8 f4 ec ff ff       	callq  400d70 <fprintf@plt>
  40207c:	bf 01 00 00 00       	mov    $0x1,%edi
  402081:	e8 ca ed ff ff       	callq  400e50 <exit@plt>
  402086:	48 8d 90 f8 ff 0f 00 	lea    0xffff8(%rax),%rdx
  40208d:	48 89 15 7c 40 20 00 	mov    %rdx,0x20407c(%rip)        # 606110 <stack_top>
  402094:	48 89 e0             	mov    %rsp,%rax
  402097:	48 89 d4             	mov    %rdx,%rsp
  40209a:	48 89 c2             	mov    %rax,%rdx
  40209d:	48 89 15 1c 34 20 00 	mov    %rdx,0x20341c(%rip)        # 6054c0 <global_save_stack>
  4020a4:	48 8b 3d 1d 34 20 00 	mov    0x20341d(%rip),%rdi        # 6054c8 <global_offset>
  4020ab:	e8 eb fe ff ff       	callq  401f9b <launch>
  4020b0:	48 8b 05 09 34 20 00 	mov    0x203409(%rip),%rax        # 6054c0 <global_save_stack>
  4020b7:	48 89 c4             	mov    %rax,%rsp
  4020ba:	be 00 00 10 00       	mov    $0x100000,%esi
  4020bf:	48 89 df             	mov    %rbx,%rdi
  4020c2:	e8 19 ed ff ff       	callq  400de0 <munmap@plt>
  4020c7:	5b                   	pop    %rbx
  4020c8:	c3                   	retq   
  4020c9:	0f 1f 80 00 00 00 00 	nopl   0x0(%rax)

00000000004020d0 <rio_readinitb>:
  4020d0:	89 37                	mov    %esi,(%rdi)
  4020d2:	c7 47 04 00 00 00 00 	movl   $0x0,0x4(%rdi)
  4020d9:	48 8d 47 10          	lea    0x10(%rdi),%rax
  4020dd:	48 89 47 08          	mov    %rax,0x8(%rdi)
  4020e1:	c3                   	retq   

00000000004020e2 <sigalrm_handler>:
  4020e2:	48 83 ec 08          	sub    $0x8,%rsp
  4020e6:	ba 00 00 00 00       	mov    $0x0,%edx
  4020eb:	be c0 34 40 00       	mov    $0x4034c0,%esi
  4020f0:	48 8b 3d b9 33 20 00 	mov    0x2033b9(%rip),%rdi        # 6054b0 <stderr@@GLIBC_2.2.5>
  4020f7:	b8 00 00 00 00       	mov    $0x0,%eax
  4020fc:	e8 6f ec ff ff       	callq  400d70 <fprintf@plt>
  402101:	bf 01 00 00 00       	mov    $0x1,%edi
  402106:	e8 45 ed ff ff       	callq  400e50 <exit@plt>

000000000040210b <urlencode>:
  40210b:	41 54                	push   %r12
  40210d:	55                   	push   %rbp
  40210e:	53                   	push   %rbx
  40210f:	48 83 ec 10          	sub    $0x10,%rsp
  402113:	48 89 fb             	mov    %rdi,%rbx
  402116:	48 89 f5             	mov    %rsi,%rbp
  402119:	b8 00 00 00 00       	mov    $0x0,%eax
  40211e:	48 c7 c1 ff ff ff ff 	mov    $0xffffffffffffffff,%rcx
  402125:	f2 ae                	repnz scas %es:(%rdi),%al
  402127:	48 f7 d1             	not    %rcx
  40212a:	8d 41 ff             	lea    -0x1(%rcx),%eax
  40212d:	e9 93 00 00 00       	jmpq   4021c5 <urlencode+0xba>
  402132:	0f b6 13             	movzbl (%rbx),%edx
  402135:	80 fa 2a             	cmp    $0x2a,%dl
  402138:	0f 94 c1             	sete   %cl
  40213b:	80 fa 2d             	cmp    $0x2d,%dl
  40213e:	0f 94 c0             	sete   %al
  402141:	08 c1                	or     %al,%cl
  402143:	75 1f                	jne    402164 <urlencode+0x59>
  402145:	80 fa 2e             	cmp    $0x2e,%dl
  402148:	74 1a                	je     402164 <urlencode+0x59>
  40214a:	80 fa 5f             	cmp    $0x5f,%dl
  40214d:	74 15                	je     402164 <urlencode+0x59>
  40214f:	8d 42 d0             	lea    -0x30(%rdx),%eax
  402152:	3c 09                	cmp    $0x9,%al
  402154:	76 0e                	jbe    402164 <urlencode+0x59>
  402156:	8d 42 bf             	lea    -0x41(%rdx),%eax
  402159:	3c 19                	cmp    $0x19,%al
  40215b:	76 07                	jbe    402164 <urlencode+0x59>
  40215d:	8d 42 9f             	lea    -0x61(%rdx),%eax
  402160:	3c 19                	cmp    $0x19,%al
  402162:	77 09                	ja     40216d <urlencode+0x62>
  402164:	88 55 00             	mov    %dl,0x0(%rbp)
  402167:	48 8d 6d 01          	lea    0x1(%rbp),%rbp
  40216b:	eb 51                	jmp    4021be <urlencode+0xb3>
  40216d:	80 fa 20             	cmp    $0x20,%dl
  402170:	75 0a                	jne    40217c <urlencode+0x71>
  402172:	c6 45 00 2b          	movb   $0x2b,0x0(%rbp)
  402176:	48 8d 6d 01          	lea    0x1(%rbp),%rbp
  40217a:	eb 42                	jmp    4021be <urlencode+0xb3>
  40217c:	8d 42 e0             	lea    -0x20(%rdx),%eax
  40217f:	3c 5f                	cmp    $0x5f,%al
  402181:	0f 96 c1             	setbe  %cl
  402184:	80 fa 09             	cmp    $0x9,%dl
  402187:	0f 94 c0             	sete   %al
  40218a:	08 c1                	or     %al,%cl
  40218c:	74 45                	je     4021d3 <urlencode+0xc8>
  40218e:	0f b6 d2             	movzbl %dl,%edx
  402191:	be 58 35 40 00       	mov    $0x403558,%esi
  402196:	48 89 e7             	mov    %rsp,%rdi
  402199:	b8 00 00 00 00       	mov    $0x0,%eax
  40219e:	e8 9d ec ff ff       	callq  400e40 <sprintf@plt>
  4021a3:	0f b6 04 24          	movzbl (%rsp),%eax
  4021a7:	88 45 00             	mov    %al,0x0(%rbp)
  4021aa:	0f b6 44 24 01       	movzbl 0x1(%rsp),%eax
  4021af:	88 45 01             	mov    %al,0x1(%rbp)
  4021b2:	0f b6 44 24 02       	movzbl 0x2(%rsp),%eax
  4021b7:	88 45 02             	mov    %al,0x2(%rbp)
  4021ba:	48 8d 6d 03          	lea    0x3(%rbp),%rbp
  4021be:	48 83 c3 01          	add    $0x1,%rbx
  4021c2:	44 89 e0             	mov    %r12d,%eax
  4021c5:	44 8d 60 ff          	lea    -0x1(%rax),%r12d
  4021c9:	85 c0                	test   %eax,%eax
  4021cb:	0f 85 61 ff ff ff    	jne    402132 <urlencode+0x27>
  4021d1:	eb 05                	jmp    4021d8 <urlencode+0xcd>
  4021d3:	b8 ff ff ff ff       	mov    $0xffffffff,%eax
  4021d8:	48 83 c4 10          	add    $0x10,%rsp
  4021dc:	5b                   	pop    %rbx
  4021dd:	5d                   	pop    %rbp
  4021de:	41 5c                	pop    %r12
  4021e0:	c3                   	retq   

00000000004021e1 <rio_writen>:
  4021e1:	41 55                	push   %r13
  4021e3:	41 54                	push   %r12
  4021e5:	55                   	push   %rbp
  4021e6:	53                   	push   %rbx
  4021e7:	48 83 ec 08          	sub    $0x8,%rsp
  4021eb:	41 89 fc             	mov    %edi,%r12d
  4021ee:	48 89 f5             	mov    %rsi,%rbp
  4021f1:	49 89 d5             	mov    %rdx,%r13
  4021f4:	48 89 d3             	mov    %rdx,%rbx
  4021f7:	eb 28                	jmp    402221 <rio_writen+0x40>
  4021f9:	48 89 da             	mov    %rbx,%rdx
  4021fc:	48 89 ee             	mov    %rbp,%rsi
  4021ff:	44 89 e7             	mov    %r12d,%edi
  402202:	e8 c9 ea ff ff       	callq  400cd0 <write@plt>
  402207:	48 85 c0             	test   %rax,%rax
  40220a:	7f 0f                	jg     40221b <rio_writen+0x3a>
  40220c:	e8 6f ea ff ff       	callq  400c80 <__errno_location@plt>
  402211:	83 38 04             	cmpl   $0x4,(%rax)
  402214:	75 15                	jne    40222b <rio_writen+0x4a>
  402216:	b8 00 00 00 00       	mov    $0x0,%eax
  40221b:	48 29 c3             	sub    %rax,%rbx
  40221e:	48 01 c5             	add    %rax,%rbp
  402221:	48 85 db             	test   %rbx,%rbx
  402224:	75 d3                	jne    4021f9 <rio_writen+0x18>
  402226:	4c 89 e8             	mov    %r13,%rax
  402229:	eb 07                	jmp    402232 <rio_writen+0x51>
  40222b:	48 c7 c0 ff ff ff ff 	mov    $0xffffffffffffffff,%rax
  402232:	48 83 c4 08          	add    $0x8,%rsp
  402236:	5b                   	pop    %rbx
  402237:	5d                   	pop    %rbp
  402238:	41 5c                	pop    %r12
  40223a:	41 5d                	pop    %r13
  40223c:	c3                   	retq   

000000000040223d <rio_read>:
  40223d:	41 56                	push   %r14
  40223f:	41 55                	push   %r13
  402241:	41 54                	push   %r12
  402243:	55                   	push   %rbp
  402244:	53                   	push   %rbx
  402245:	48 89 fb             	mov    %rdi,%rbx
  402248:	49 89 f6             	mov    %rsi,%r14
  40224b:	49 89 d5             	mov    %rdx,%r13
  40224e:	4c 8d 67 10          	lea    0x10(%rdi),%r12
  402252:	eb 2a                	jmp    40227e <rio_read+0x41>
  402254:	ba 00 20 00 00       	mov    $0x2000,%edx
  402259:	4c 89 e6             	mov    %r12,%rsi
  40225c:	8b 3b                	mov    (%rbx),%edi
  40225e:	e8 cd ea ff ff       	callq  400d30 <read@plt>
  402263:	89 43 04             	mov    %eax,0x4(%rbx)
  402266:	85 c0                	test   %eax,%eax
  402268:	79 0c                	jns    402276 <rio_read+0x39>
  40226a:	e8 11 ea ff ff       	callq  400c80 <__errno_location@plt>
  40226f:	83 38 04             	cmpl   $0x4,(%rax)
  402272:	74 0a                	je     40227e <rio_read+0x41>
  402274:	eb 37                	jmp    4022ad <rio_read+0x70>
  402276:	85 c0                	test   %eax,%eax
  402278:	74 3c                	je     4022b6 <rio_read+0x79>
  40227a:	4c 89 63 08          	mov    %r12,0x8(%rbx)
  40227e:	8b 6b 04             	mov    0x4(%rbx),%ebp
  402281:	85 ed                	test   %ebp,%ebp
  402283:	7e cf                	jle    402254 <rio_read+0x17>
  402285:	89 e8                	mov    %ebp,%eax
  402287:	4c 39 e8             	cmp    %r13,%rax
  40228a:	72 03                	jb     40228f <rio_read+0x52>
  40228c:	44 89 ed             	mov    %r13d,%ebp
  40228f:	4c 63 e5             	movslq %ebp,%r12
  402292:	48 8b 73 08          	mov    0x8(%rbx),%rsi
  402296:	4c 89 e2             	mov    %r12,%rdx
  402299:	4c 89 f7             	mov    %r14,%rdi
  40229c:	e8 ef ea ff ff       	callq  400d90 <memcpy@plt>
  4022a1:	4c 01 63 08          	add    %r12,0x8(%rbx)
  4022a5:	29 6b 04             	sub    %ebp,0x4(%rbx)
  4022a8:	4c 89 e0             	mov    %r12,%rax
  4022ab:	eb 0e                	jmp    4022bb <rio_read+0x7e>
  4022ad:	48 c7 c0 ff ff ff ff 	mov    $0xffffffffffffffff,%rax
  4022b4:	eb 05                	jmp    4022bb <rio_read+0x7e>
  4022b6:	b8 00 00 00 00       	mov    $0x0,%eax
  4022bb:	5b                   	pop    %rbx
  4022bc:	5d                   	pop    %rbp
  4022bd:	41 5c                	pop    %r12
  4022bf:	41 5d                	pop    %r13
  4022c1:	41 5e                	pop    %r14
  4022c3:	c3                   	retq   

00000000004022c4 <rio_readlineb>:
  4022c4:	41 55                	push   %r13
  4022c6:	41 54                	push   %r12
  4022c8:	55                   	push   %rbp
  4022c9:	53                   	push   %rbx
  4022ca:	48 83 ec 18          	sub    $0x18,%rsp
  4022ce:	49 89 fd             	mov    %rdi,%r13
  4022d1:	48 89 f5             	mov    %rsi,%rbp
  4022d4:	49 89 d4             	mov    %rdx,%r12
  4022d7:	bb 01 00 00 00       	mov    $0x1,%ebx
  4022dc:	eb 3d                	jmp    40231b <rio_readlineb+0x57>
  4022de:	ba 01 00 00 00       	mov    $0x1,%edx
  4022e3:	48 8d 74 24 0f       	lea    0xf(%rsp),%rsi
  4022e8:	4c 89 ef             	mov    %r13,%rdi
  4022eb:	e8 4d ff ff ff       	callq  40223d <rio_read>
  4022f0:	83 f8 01             	cmp    $0x1,%eax
  4022f3:	75 12                	jne    402307 <rio_readlineb+0x43>
  4022f5:	48 8d 55 01          	lea    0x1(%rbp),%rdx
  4022f9:	0f b6 44 24 0f       	movzbl 0xf(%rsp),%eax
  4022fe:	88 45 00             	mov    %al,0x0(%rbp)
  402301:	3c 0a                	cmp    $0xa,%al
  402303:	75 0f                	jne    402314 <rio_readlineb+0x50>
  402305:	eb 1b                	jmp    402322 <rio_readlineb+0x5e>
  402307:	85 c0                	test   %eax,%eax
  402309:	75 23                	jne    40232e <rio_readlineb+0x6a>
  40230b:	48 83 fb 01          	cmp    $0x1,%rbx
  40230f:	90                   	nop
  402310:	75 13                	jne    402325 <rio_readlineb+0x61>
  402312:	eb 23                	jmp    402337 <rio_readlineb+0x73>
  402314:	48 83 c3 01          	add    $0x1,%rbx
  402318:	48 89 d5             	mov    %rdx,%rbp
  40231b:	4c 39 e3             	cmp    %r12,%rbx
  40231e:	72 be                	jb     4022de <rio_readlineb+0x1a>
  402320:	eb 03                	jmp    402325 <rio_readlineb+0x61>
  402322:	48 89 d5             	mov    %rdx,%rbp
  402325:	c6 45 00 00          	movb   $0x0,0x0(%rbp)
  402329:	48 89 d8             	mov    %rbx,%rax
  40232c:	eb 0e                	jmp    40233c <rio_readlineb+0x78>
  40232e:	48 c7 c0 ff ff ff ff 	mov    $0xffffffffffffffff,%rax
  402335:	eb 05                	jmp    40233c <rio_readlineb+0x78>
  402337:	b8 00 00 00 00       	mov    $0x0,%eax
  40233c:	48 83 c4 18          	add    $0x18,%rsp
  402340:	5b                   	pop    %rbx
  402341:	5d                   	pop    %rbp
  402342:	41 5c                	pop    %r12
  402344:	41 5d                	pop    %r13
  402346:	c3                   	retq   

0000000000402347 <submitr>:
  402347:	41 57                	push   %r15
  402349:	41 56                	push   %r14
  40234b:	41 55                	push   %r13
  40234d:	41 54                	push   %r12
  40234f:	55                   	push   %rbp
  402350:	53                   	push   %rbx
  402351:	48 81 ec 48 a0 00 00 	sub    $0xa048,%rsp
  402358:	49 89 fc             	mov    %rdi,%r12
  40235b:	89 74 24 04          	mov    %esi,0x4(%rsp)
  40235f:	49 89 d7             	mov    %rdx,%r15
  402362:	49 89 ce             	mov    %rcx,%r14
  402365:	4c 89 44 24 08       	mov    %r8,0x8(%rsp)
  40236a:	4d 89 cd             	mov    %r9,%r13
  40236d:	48 8b 9c 24 80 a0 00 	mov    0xa080(%rsp),%rbx
  402374:	00 
  402375:	c7 84 24 1c 20 00 00 	movl   $0x0,0x201c(%rsp)
  40237c:	00 00 00 00 
  402380:	ba 00 00 00 00       	mov    $0x0,%edx
  402385:	be 01 00 00 00       	mov    $0x1,%esi
  40238a:	bf 02 00 00 00       	mov    $0x2,%edi
  40238f:	e8 dc ea ff ff       	callq  400e70 <socket@plt>
  402394:	89 c5                	mov    %eax,%ebp
  402396:	85 c0                	test   %eax,%eax
  402398:	79 4e                	jns    4023e8 <submitr+0xa1>
  40239a:	48 b8 45 72 72 6f 72 	movabs $0x43203a726f727245,%rax
  4023a1:	3a 20 43 
  4023a4:	48 89 03             	mov    %rax,(%rbx)
  4023a7:	48 b8 6c 69 65 6e 74 	movabs $0x6e7520746e65696c,%rax
  4023ae:	20 75 6e 
  4023b1:	48 89 43 08          	mov    %rax,0x8(%rbx)
  4023b5:	48 b8 61 62 6c 65 20 	movabs $0x206f7420656c6261,%rax
  4023bc:	74 6f 20 
  4023bf:	48 89 43 10          	mov    %rax,0x10(%rbx)
  4023c3:	48 b8 63 72 65 61 74 	movabs $0x7320657461657263,%rax
  4023ca:	65 20 73 
  4023cd:	48 89 43 18          	mov    %rax,0x18(%rbx)
  4023d1:	c7 43 20 6f 63 6b 65 	movl   $0x656b636f,0x20(%rbx)
  4023d8:	66 c7 43 24 74 00    	movw   $0x74,0x24(%rbx)
  4023de:	b8 ff ff ff ff       	mov    $0xffffffff,%eax
  4023e3:	e9 94 06 00 00       	jmpq   402a7c <submitr+0x735>
  4023e8:	4c 89 e7             	mov    %r12,%rdi
  4023eb:	e8 70 e9 ff ff       	callq  400d60 <gethostbyname@plt>
  4023f0:	48 85 c0             	test   %rax,%rax
  4023f3:	75 67                	jne    40245c <submitr+0x115>
  4023f5:	48 b8 45 72 72 6f 72 	movabs $0x44203a726f727245,%rax
  4023fc:	3a 20 44 
  4023ff:	48 89 03             	mov    %rax,(%rbx)
  402402:	48 b8 4e 53 20 69 73 	movabs $0x6e7520736920534e,%rax
  402409:	20 75 6e 
  40240c:	48 89 43 08          	mov    %rax,0x8(%rbx)
  402410:	48 b8 61 62 6c 65 20 	movabs $0x206f7420656c6261,%rax
  402417:	74 6f 20 
  40241a:	48 89 43 10          	mov    %rax,0x10(%rbx)
  40241e:	48 b8 72 65 73 6f 6c 	movabs $0x2065766c6f736572,%rax
  402425:	76 65 20 
  402428:	48 89 43 18          	mov    %rax,0x18(%rbx)
  40242c:	48 b8 73 65 72 76 65 	movabs $0x6120726576726573,%rax
  402433:	72 20 61 
  402436:	48 89 43 20          	mov    %rax,0x20(%rbx)
  40243a:	c7 43 28 64 64 72 65 	movl   $0x65726464,0x28(%rbx)
  402441:	66 c7 43 2c 73 73    	movw   $0x7373,0x2c(%rbx)
  402447:	c6 43 2e 00          	movb   $0x0,0x2e(%rbx)
  40244b:	89 ef                	mov    %ebp,%edi
  40244d:	e8 ce e8 ff ff       	callq  400d20 <close@plt>
  402452:	b8 ff ff ff ff       	mov    $0xffffffff,%eax
  402457:	e9 20 06 00 00       	jmpq   402a7c <submitr+0x735>
  40245c:	48 c7 84 24 30 a0 00 	movq   $0x0,0xa030(%rsp)
  402463:	00 00 00 00 00 
  402468:	48 c7 84 24 38 a0 00 	movq   $0x0,0xa038(%rsp)
  40246f:	00 00 00 00 00 
  402474:	66 c7 84 24 30 a0 00 	movw   $0x2,0xa030(%rsp)
  40247b:	00 02 00 
  40247e:	48 8b 48 18          	mov    0x18(%rax),%rcx
  402482:	48 63 50 14          	movslq 0x14(%rax),%rdx
  402486:	48 8d b4 24 34 a0 00 	lea    0xa034(%rsp),%rsi
  40248d:	00 
  40248e:	48 8b 39             	mov    (%rcx),%rdi
  402491:	e8 5a e9 ff ff       	callq  400df0 <bcopy@plt>
  402496:	0f b7 44 24 04       	movzwl 0x4(%rsp),%eax
  40249b:	66 c1 c8 08          	ror    $0x8,%ax
  40249f:	66 89 84 24 32 a0 00 	mov    %ax,0xa032(%rsp)
  4024a6:	00 
  4024a7:	ba 10 00 00 00       	mov    $0x10,%edx
  4024ac:	48 8d b4 24 30 a0 00 	lea    0xa030(%rsp),%rsi
  4024b3:	00 
  4024b4:	89 ef                	mov    %ebp,%edi
  4024b6:	e8 a5 e9 ff ff       	callq  400e60 <connect@plt>
  4024bb:	85 c0                	test   %eax,%eax
  4024bd:	79 59                	jns    402518 <submitr+0x1d1>
  4024bf:	48 b8 45 72 72 6f 72 	movabs $0x55203a726f727245,%rax
  4024c6:	3a 20 55 
  4024c9:	48 89 03             	mov    %rax,(%rbx)
  4024cc:	48 b8 6e 61 62 6c 65 	movabs $0x6f7420656c62616e,%rax
  4024d3:	20 74 6f 
  4024d6:	48 89 43 08          	mov    %rax,0x8(%rbx)
  4024da:	48 b8 20 63 6f 6e 6e 	movabs $0x7463656e6e6f6320,%rax
  4024e1:	65 63 74 
  4024e4:	48 89 43 10          	mov    %rax,0x10(%rbx)
  4024e8:	48 b8 20 74 6f 20 74 	movabs $0x20656874206f7420,%rax
  4024ef:	68 65 20 
  4024f2:	48 89 43 18          	mov    %rax,0x18(%rbx)
  4024f6:	c7 43 20 73 65 72 76 	movl   $0x76726573,0x20(%rbx)
  4024fd:	66 c7 43 24 65 72    	movw   $0x7265,0x24(%rbx)
  402503:	c6 43 26 00          	movb   $0x0,0x26(%rbx)
  402507:	89 ef                	mov    %ebp,%edi
  402509:	e8 12 e8 ff ff       	callq  400d20 <close@plt>
  40250e:	b8 ff ff ff ff       	mov    $0xffffffff,%eax
  402513:	e9 64 05 00 00       	jmpq   402a7c <submitr+0x735>
  402518:	48 c7 c2 ff ff ff ff 	mov    $0xffffffffffffffff,%rdx
  40251f:	4c 89 ef             	mov    %r13,%rdi
  402522:	b8 00 00 00 00       	mov    $0x0,%eax
  402527:	48 89 d1             	mov    %rdx,%rcx
  40252a:	f2 ae                	repnz scas %es:(%rdi),%al
  40252c:	48 f7 d1             	not    %rcx
  40252f:	48 89 ce             	mov    %rcx,%rsi
  402532:	4c 89 ff             	mov    %r15,%rdi
  402535:	48 89 d1             	mov    %rdx,%rcx
  402538:	f2 ae                	repnz scas %es:(%rdi),%al
  40253a:	48 f7 d1             	not    %rcx
  40253d:	49 89 c8             	mov    %rcx,%r8
  402540:	4c 89 f7             	mov    %r14,%rdi
  402543:	48 89 d1             	mov    %rdx,%rcx
  402546:	f2 ae                	repnz scas %es:(%rdi),%al
  402548:	49 29 c8             	sub    %rcx,%r8
  40254b:	48 8b 7c 24 08       	mov    0x8(%rsp),%rdi
  402550:	48 89 d1             	mov    %rdx,%rcx
  402553:	f2 ae                	repnz scas %es:(%rdi),%al
  402555:	49 29 c8             	sub    %rcx,%r8
  402558:	48 8d 44 76 fd       	lea    -0x3(%rsi,%rsi,2),%rax
  40255d:	49 8d 44 00 7b       	lea    0x7b(%r8,%rax,1),%rax
  402562:	48 3d 00 20 00 00    	cmp    $0x2000,%rax
  402568:	76 72                	jbe    4025dc <submitr+0x295>
  40256a:	48 b8 45 72 72 6f 72 	movabs $0x52203a726f727245,%rax
  402571:	3a 20 52 
  402574:	48 89 03             	mov    %rax,(%rbx)
  402577:	48 b8 65 73 75 6c 74 	movabs $0x747320746c757365,%rax
  40257e:	20 73 74 
  402581:	48 89 43 08          	mov    %rax,0x8(%rbx)
  402585:	48 b8 72 69 6e 67 20 	movabs $0x6f6f7420676e6972,%rax
  40258c:	74 6f 6f 
  40258f:	48 89 43 10          	mov    %rax,0x10(%rbx)
  402593:	48 b8 20 6c 61 72 67 	movabs $0x202e656772616c20,%rax
  40259a:	65 2e 20 
  40259d:	48 89 43 18          	mov    %rax,0x18(%rbx)
  4025a1:	48 b8 49 6e 63 72 65 	movabs $0x6573616572636e49,%rax
  4025a8:	61 73 65 
  4025ab:	48 89 43 20          	mov    %rax,0x20(%rbx)
  4025af:	48 b8 20 53 55 42 4d 	movabs $0x5254494d42555320,%rax
  4025b6:	49 54 52 
  4025b9:	48 89 43 28          	mov    %rax,0x28(%rbx)
  4025bd:	48 b8 5f 4d 41 58 42 	movabs $0x46554258414d5f,%rax
  4025c4:	55 46 00 
  4025c7:	48 89 43 30          	mov    %rax,0x30(%rbx)
  4025cb:	89 ef                	mov    %ebp,%edi
  4025cd:	e8 4e e7 ff ff       	callq  400d20 <close@plt>
  4025d2:	b8 ff ff ff ff       	mov    $0xffffffff,%eax
  4025d7:	e9 a0 04 00 00       	jmpq   402a7c <submitr+0x735>
  4025dc:	48 8d b4 24 20 40 00 	lea    0x4020(%rsp),%rsi
  4025e3:	00 
  4025e4:	b9 00 04 00 00       	mov    $0x400,%ecx
  4025e9:	b8 00 00 00 00       	mov    $0x0,%eax
  4025ee:	48 89 f7             	mov    %rsi,%rdi
  4025f1:	f3 48 ab             	rep stos %rax,%es:(%rdi)
  4025f4:	4c 89 ef             	mov    %r13,%rdi
  4025f7:	e8 0f fb ff ff       	callq  40210b <urlencode>
  4025fc:	85 c0                	test   %eax,%eax
  4025fe:	0f 89 8a 00 00 00    	jns    40268e <submitr+0x347>
  402604:	48 b8 45 72 72 6f 72 	movabs $0x52203a726f727245,%rax
  40260b:	3a 20 52 
  40260e:	48 89 03             	mov    %rax,(%rbx)
  402611:	48 b8 65 73 75 6c 74 	movabs $0x747320746c757365,%rax
  402618:	20 73 74 
  40261b:	48 89 43 08          	mov    %rax,0x8(%rbx)
  40261f:	48 b8 72 69 6e 67 20 	movabs $0x6e6f6320676e6972,%rax
  402626:	63 6f 6e 
  402629:	48 89 43 10          	mov    %rax,0x10(%rbx)
  40262d:	48 b8 74 61 69 6e 73 	movabs $0x6e6120736e696174,%rax
  402634:	20 61 6e 
  402637:	48 89 43 18          	mov    %rax,0x18(%rbx)
  40263b:	48 b8 20 69 6c 6c 65 	movabs $0x6c6167656c6c6920,%rax
  402642:	67 61 6c 
  402645:	48 89 43 20          	mov    %rax,0x20(%rbx)
  402649:	48 b8 20 6f 72 20 75 	movabs $0x72706e7520726f20,%rax
  402650:	6e 70 72 
  402653:	48 89 43 28          	mov    %rax,0x28(%rbx)
  402657:	48 b8 69 6e 74 61 62 	movabs $0x20656c6261746e69,%rax
  40265e:	6c 65 20 
  402661:	48 89 43 30          	mov    %rax,0x30(%rbx)
  402665:	48 b8 63 68 61 72 61 	movabs $0x6574636172616863,%rax
  40266c:	63 74 65 
  40266f:	48 89 43 38          	mov    %rax,0x38(%rbx)
  402673:	66 c7 43 40 72 2e    	movw   $0x2e72,0x40(%rbx)
  402679:	c6 43 42 00          	movb   $0x0,0x42(%rbx)
  40267d:	89 ef                	mov    %ebp,%edi
  40267f:	e8 9c e6 ff ff       	callq  400d20 <close@plt>
  402684:	b8 ff ff ff ff       	mov    $0xffffffff,%eax
  402689:	e9 ee 03 00 00       	jmpq   402a7c <submitr+0x735>
  40268e:	4d 89 e1             	mov    %r12,%r9
  402691:	4c 8d 84 24 20 40 00 	lea    0x4020(%rsp),%r8
  402698:	00 
  402699:	4c 89 f9             	mov    %r15,%rcx
  40269c:	4c 89 f2             	mov    %r14,%rdx
  40269f:	be e8 34 40 00       	mov    $0x4034e8,%esi
  4026a4:	48 8d bc 24 20 60 00 	lea    0x6020(%rsp),%rdi
  4026ab:	00 
  4026ac:	b8 00 00 00 00       	mov    $0x0,%eax
  4026b1:	e8 8a e7 ff ff       	callq  400e40 <sprintf@plt>
  4026b6:	48 8d bc 24 20 60 00 	lea    0x6020(%rsp),%rdi
  4026bd:	00 
  4026be:	b8 00 00 00 00       	mov    $0x0,%eax
  4026c3:	48 c7 c1 ff ff ff ff 	mov    $0xffffffffffffffff,%rcx
  4026ca:	f2 ae                	repnz scas %es:(%rdi),%al
  4026cc:	48 f7 d1             	not    %rcx
  4026cf:	48 8d 51 ff          	lea    -0x1(%rcx),%rdx
  4026d3:	48 8d b4 24 20 60 00 	lea    0x6020(%rsp),%rsi
  4026da:	00 
  4026db:	89 ef                	mov    %ebp,%edi
  4026dd:	e8 ff fa ff ff       	callq  4021e1 <rio_writen>
  4026e2:	48 85 c0             	test   %rax,%rax
  4026e5:	79 6e                	jns    402755 <submitr+0x40e>
  4026e7:	48 b8 45 72 72 6f 72 	movabs $0x43203a726f727245,%rax
  4026ee:	3a 20 43 
  4026f1:	48 89 03             	mov    %rax,(%rbx)
  4026f4:	48 b8 6c 69 65 6e 74 	movabs $0x6e7520746e65696c,%rax
  4026fb:	20 75 6e 
  4026fe:	48 89 43 08          	mov    %rax,0x8(%rbx)
  402702:	48 b8 61 62 6c 65 20 	movabs $0x206f7420656c6261,%rax
  402709:	74 6f 20 
  40270c:	48 89 43 10          	mov    %rax,0x10(%rbx)
  402710:	48 b8 77 72 69 74 65 	movabs $0x6f74206574697277,%rax
  402717:	20 74 6f 
  40271a:	48 89 43 18          	mov    %rax,0x18(%rbx)
  40271e:	48 b8 20 74 68 65 20 	movabs $0x7365722065687420,%rax
  402725:	72 65 73 
  402728:	48 89 43 20          	mov    %rax,0x20(%rbx)
  40272c:	48 b8 75 6c 74 20 73 	movabs $0x7672657320746c75,%rax
  402733:	65 72 76 
  402736:	48 89 43 28          	mov    %rax,0x28(%rbx)
  40273a:	66 c7 43 30 65 72    	movw   $0x7265,0x30(%rbx)
  402740:	c6 43 32 00          	movb   $0x0,0x32(%rbx)
  402744:	89 ef                	mov    %ebp,%edi
  402746:	e8 d5 e5 ff ff       	callq  400d20 <close@plt>
  40274b:	b8 ff ff ff ff       	mov    $0xffffffff,%eax
  402750:	e9 27 03 00 00       	jmpq   402a7c <submitr+0x735>
  402755:	89 ee                	mov    %ebp,%esi
  402757:	48 8d bc 24 20 80 00 	lea    0x8020(%rsp),%rdi
  40275e:	00 
  40275f:	e8 6c f9 ff ff       	callq  4020d0 <rio_readinitb>
  402764:	ba 00 20 00 00       	mov    $0x2000,%edx
  402769:	48 8d b4 24 20 60 00 	lea    0x6020(%rsp),%rsi
  402770:	00 
  402771:	48 8d bc 24 20 80 00 	lea    0x8020(%rsp),%rdi
  402778:	00 
  402779:	e8 46 fb ff ff       	callq  4022c4 <rio_readlineb>
  40277e:	48 85 c0             	test   %rax,%rax
  402781:	7f 7d                	jg     402800 <submitr+0x4b9>
  402783:	48 b8 45 72 72 6f 72 	movabs $0x43203a726f727245,%rax
  40278a:	3a 20 43 
  40278d:	48 89 03             	mov    %rax,(%rbx)
  402790:	48 b8 6c 69 65 6e 74 	movabs $0x6e7520746e65696c,%rax
  402797:	20 75 6e 
  40279a:	48 89 43 08          	mov    %rax,0x8(%rbx)
  40279e:	48 b8 61 62 6c 65 20 	movabs $0x206f7420656c6261,%rax
  4027a5:	74 6f 20 
  4027a8:	48 89 43 10          	mov    %rax,0x10(%rbx)
  4027ac:	48 b8 72 65 61 64 20 	movabs $0x7269662064616572,%rax
  4027b3:	66 69 72 
  4027b6:	48 89 43 18          	mov    %rax,0x18(%rbx)
  4027ba:	48 b8 73 74 20 68 65 	movabs $0x6564616568207473,%rax
  4027c1:	61 64 65 
  4027c4:	48 89 43 20          	mov    %rax,0x20(%rbx)
  4027c8:	48 b8 72 20 66 72 6f 	movabs $0x72206d6f72662072,%rax
  4027cf:	6d 20 72 
  4027d2:	48 89 43 28          	mov    %rax,0x28(%rbx)
  4027d6:	48 b8 65 73 75 6c 74 	movabs $0x657320746c757365,%rax
  4027dd:	20 73 65 
  4027e0:	48 89 43 30          	mov    %rax,0x30(%rbx)
  4027e4:	c7 43 38 72 76 65 72 	movl   $0x72657672,0x38(%rbx)
  4027eb:	c6 43 3c 00          	movb   $0x0,0x3c(%rbx)
  4027ef:	89 ef                	mov    %ebp,%edi
  4027f1:	e8 2a e5 ff ff       	callq  400d20 <close@plt>
  4027f6:	b8 ff ff ff ff       	mov    $0xffffffff,%eax
  4027fb:	e9 7c 02 00 00       	jmpq   402a7c <submitr+0x735>
  402800:	4c 8d 44 24 10       	lea    0x10(%rsp),%r8
  402805:	48 8d 8c 24 1c 20 00 	lea    0x201c(%rsp),%rcx
  40280c:	00 
  40280d:	48 8d 94 24 20 20 00 	lea    0x2020(%rsp),%rdx
  402814:	00 
  402815:	be 5f 35 40 00       	mov    $0x40355f,%esi
  40281a:	48 8d bc 24 20 60 00 	lea    0x6020(%rsp),%rdi
  402821:	00 
  402822:	b8 00 00 00 00       	mov    $0x0,%eax
  402827:	e8 a4 e5 ff ff       	callq  400dd0 <__isoc99_sscanf@plt>
  40282c:	41 bc 0d 00 00 00    	mov    $0xd,%r12d
  402832:	41 bd 0a 00 00 00    	mov    $0xa,%r13d
  402838:	e9 98 00 00 00       	jmpq   4028d5 <submitr+0x58e>
  40283d:	ba 00 20 00 00       	mov    $0x2000,%edx
  402842:	48 8d b4 24 20 60 00 	lea    0x6020(%rsp),%rsi
  402849:	00 
  40284a:	48 8d bc 24 20 80 00 	lea    0x8020(%rsp),%rdi
  402851:	00 
  402852:	e8 6d fa ff ff       	callq  4022c4 <rio_readlineb>
  402857:	48 85 c0             	test   %rax,%rax
  40285a:	7f 79                	jg     4028d5 <submitr+0x58e>
  40285c:	48 b8 45 72 72 6f 72 	movabs $0x43203a726f727245,%rax
  402863:	3a 20 43 
  402866:	48 89 03             	mov    %rax,(%rbx)
  402869:	48 b8 6c 69 65 6e 74 	movabs $0x6e7520746e65696c,%rax
  402870:	20 75 6e 
  402873:	48 89 43 08          	mov    %rax,0x8(%rbx)
  402877:	48 b8 61 62 6c 65 20 	movabs $0x206f7420656c6261,%rax
  40287e:	74 6f 20 
  402881:	48 89 43 10          	mov    %rax,0x10(%rbx)
  402885:	48 b8 72 65 61 64 20 	movabs $0x6165682064616572,%rax
  40288c:	68 65 61 
  40288f:	48 89 43 18          	mov    %rax,0x18(%rbx)
  402893:	48 b8 64 65 72 73 20 	movabs $0x6f72662073726564,%rax
  40289a:	66 72 6f 
  40289d:	48 89 43 20          	mov    %rax,0x20(%rbx)
  4028a1:	48 b8 6d 20 74 68 65 	movabs $0x657220656874206d,%rax
  4028a8:	20 72 65 
  4028ab:	48 89 43 28          	mov    %rax,0x28(%rbx)
  4028af:	48 b8 73 75 6c 74 20 	movabs $0x72657320746c7573,%rax
  4028b6:	73 65 72 
  4028b9:	48 89 43 30          	mov    %rax,0x30(%rbx)
  4028bd:	c7 43 38 76 65 72 00 	movl   $0x726576,0x38(%rbx)
  4028c4:	89 ef                	mov    %ebp,%edi
  4028c6:	e8 55 e4 ff ff       	callq  400d20 <close@plt>
  4028cb:	b8 ff ff ff ff       	mov    $0xffffffff,%eax
  4028d0:	e9 a7 01 00 00       	jmpq   402a7c <submitr+0x735>
  4028d5:	0f b6 84 24 20 60 00 	movzbl 0x6020(%rsp),%eax
  4028dc:	00 
  4028dd:	44 89 e6             	mov    %r12d,%esi
  4028e0:	29 c6                	sub    %eax,%esi
  4028e2:	89 f0                	mov    %esi,%eax
  4028e4:	75 1b                	jne    402901 <submitr+0x5ba>
  4028e6:	0f b6 84 24 21 60 00 	movzbl 0x6021(%rsp),%eax
  4028ed:	00 
  4028ee:	44 89 ea             	mov    %r13d,%edx
  4028f1:	29 c2                	sub    %eax,%edx
  4028f3:	89 d0                	mov    %edx,%eax
  4028f5:	75 0a                	jne    402901 <submitr+0x5ba>
  4028f7:	0f b6 84 24 22 60 00 	movzbl 0x6022(%rsp),%eax
  4028fe:	00 
  4028ff:	f7 d8                	neg    %eax
  402901:	85 c0                	test   %eax,%eax
  402903:	0f 85 34 ff ff ff    	jne    40283d <submitr+0x4f6>
  402909:	ba 00 20 00 00       	mov    $0x2000,%edx
  40290e:	48 8d b4 24 20 60 00 	lea    0x6020(%rsp),%rsi
  402915:	00 
  402916:	48 8d bc 24 20 80 00 	lea    0x8020(%rsp),%rdi
  40291d:	00 
  40291e:	e8 a1 f9 ff ff       	callq  4022c4 <rio_readlineb>
  402923:	48 85 c0             	test   %rax,%rax
  402926:	0f 8f 83 00 00 00    	jg     4029af <submitr+0x668>
  40292c:	48 b8 45 72 72 6f 72 	movabs $0x43203a726f727245,%rax
  402933:	3a 20 43 
  402936:	48 89 03             	mov    %rax,(%rbx)
  402939:	48 b8 6c 69 65 6e 74 	movabs $0x6e7520746e65696c,%rax
  402940:	20 75 6e 
  402943:	48 89 43 08          	mov    %rax,0x8(%rbx)
  402947:	48 b8 61 62 6c 65 20 	movabs $0x206f7420656c6261,%rax
  40294e:	74 6f 20 
  402951:	48 89 43 10          	mov    %rax,0x10(%rbx)
  402955:	48 b8 72 65 61 64 20 	movabs $0x6174732064616572,%rax
  40295c:	73 74 61 
  40295f:	48 89 43 18          	mov    %rax,0x18(%rbx)
  402963:	48 b8 74 75 73 20 6d 	movabs $0x7373656d20737574,%rax
  40296a:	65 73 73 
  40296d:	48 89 43 20          	mov    %rax,0x20(%rbx)
  402971:	48 b8 61 67 65 20 66 	movabs $0x6d6f726620656761,%rax
  402978:	72 6f 6d 
  40297b:	48 89 43 28          	mov    %rax,0x28(%rbx)
  40297f:	48 b8 20 72 65 73 75 	movabs $0x20746c7573657220,%rax
  402986:	6c 74 20 
  402989:	48 89 43 30          	mov    %rax,0x30(%rbx)
  40298d:	c7 43 38 73 65 72 76 	movl   $0x76726573,0x38(%rbx)
  402994:	66 c7 43 3c 65 72    	movw   $0x7265,0x3c(%rbx)
  40299a:	c6 43 3e 00          	movb   $0x0,0x3e(%rbx)
  40299e:	89 ef                	mov    %ebp,%edi
  4029a0:	e8 7b e3 ff ff       	callq  400d20 <close@plt>
  4029a5:	b8 ff ff ff ff       	mov    $0xffffffff,%eax
  4029aa:	e9 cd 00 00 00       	jmpq   402a7c <submitr+0x735>
  4029af:	8b 94 24 1c 20 00 00 	mov    0x201c(%rsp),%edx
  4029b6:	81 fa c8 00 00 00    	cmp    $0xc8,%edx
  4029bc:	74 28                	je     4029e6 <submitr+0x69f>
  4029be:	48 8d 4c 24 10       	lea    0x10(%rsp),%rcx
  4029c3:	be 28 35 40 00       	mov    $0x403528,%esi
  4029c8:	48 89 df             	mov    %rbx,%rdi
  4029cb:	b8 00 00 00 00       	mov    $0x0,%eax
  4029d0:	e8 6b e4 ff ff       	callq  400e40 <sprintf@plt>
  4029d5:	89 ef                	mov    %ebp,%edi
  4029d7:	e8 44 e3 ff ff       	callq  400d20 <close@plt>
  4029dc:	b8 ff ff ff ff       	mov    $0xffffffff,%eax
  4029e1:	e9 96 00 00 00       	jmpq   402a7c <submitr+0x735>
  4029e6:	48 8d b4 24 20 60 00 	lea    0x6020(%rsp),%rsi
  4029ed:	00 
  4029ee:	48 89 df             	mov    %rbx,%rdi
  4029f1:	e8 ba e2 ff ff       	callq  400cb0 <strcpy@plt>
  4029f6:	89 ef                	mov    %ebp,%edi
  4029f8:	e8 23 e3 ff ff       	callq  400d20 <close@plt>
  4029fd:	0f b6 03             	movzbl (%rbx),%eax
  402a00:	ba 4f 00 00 00       	mov    $0x4f,%edx
  402a05:	29 c2                	sub    %eax,%edx
  402a07:	75 22                	jne    402a2b <submitr+0x6e4>
  402a09:	0f b6 4b 01          	movzbl 0x1(%rbx),%ecx
  402a0d:	b8 4b 00 00 00       	mov    $0x4b,%eax
  402a12:	29 c8                	sub    %ecx,%eax
  402a14:	75 17                	jne    402a2d <submitr+0x6e6>
  402a16:	0f b6 4b 02          	movzbl 0x2(%rbx),%ecx
  402a1a:	b8 0a 00 00 00       	mov    $0xa,%eax
  402a1f:	29 c8                	sub    %ecx,%eax
  402a21:	75 0a                	jne    402a2d <submitr+0x6e6>
  402a23:	0f b6 43 03          	movzbl 0x3(%rbx),%eax
  402a27:	f7 d8                	neg    %eax
  402a29:	eb 02                	jmp    402a2d <submitr+0x6e6>
  402a2b:	89 d0                	mov    %edx,%eax
  402a2d:	85 c0                	test   %eax,%eax
  402a2f:	74 38                	je     402a69 <submitr+0x722>
  402a31:	bf 70 35 40 00       	mov    $0x403570,%edi
  402a36:	b9 05 00 00 00       	mov    $0x5,%ecx
  402a3b:	48 89 de             	mov    %rbx,%rsi
  402a3e:	f3 a6                	repz cmpsb %es:(%rdi),%ds:(%rsi)
  402a40:	0f 97 c1             	seta   %cl
  402a43:	0f 92 c0             	setb   %al
  402a46:	38 c1                	cmp    %al,%cl
  402a48:	74 26                	je     402a70 <submitr+0x729>
  402a4a:	85 d2                	test   %edx,%edx
  402a4c:	75 10                	jne    402a5e <submitr+0x717>
  402a4e:	0f b6 43 01          	movzbl 0x1(%rbx),%eax
  402a52:	b2 4b                	mov    $0x4b,%dl
  402a54:	29 c2                	sub    %eax,%edx
  402a56:	75 06                	jne    402a5e <submitr+0x717>
  402a58:	0f b6 53 02          	movzbl 0x2(%rbx),%edx
  402a5c:	f7 da                	neg    %edx
  402a5e:	85 d2                	test   %edx,%edx
  402a60:	75 15                	jne    402a77 <submitr+0x730>
  402a62:	b8 00 00 00 00       	mov    $0x0,%eax
  402a67:	eb 13                	jmp    402a7c <submitr+0x735>
  402a69:	b8 00 00 00 00       	mov    $0x0,%eax
  402a6e:	eb 0c                	jmp    402a7c <submitr+0x735>
  402a70:	b8 00 00 00 00       	mov    $0x0,%eax
  402a75:	eb 05                	jmp    402a7c <submitr+0x735>
  402a77:	b8 ff ff ff ff       	mov    $0xffffffff,%eax
  402a7c:	48 81 c4 48 a0 00 00 	add    $0xa048,%rsp
  402a83:	5b                   	pop    %rbx
  402a84:	5d                   	pop    %rbp
  402a85:	41 5c                	pop    %r12
  402a87:	41 5d                	pop    %r13
  402a89:	41 5e                	pop    %r14
  402a8b:	41 5f                	pop    %r15
  402a8d:	c3                   	retq   

0000000000402a8e <init_timeout>:
  402a8e:	53                   	push   %rbx
  402a8f:	89 fb                	mov    %edi,%ebx
  402a91:	85 ff                	test   %edi,%edi
  402a93:	74 1f                	je     402ab4 <init_timeout+0x26>
  402a95:	85 ff                	test   %edi,%edi
  402a97:	79 05                	jns    402a9e <init_timeout+0x10>
  402a99:	bb 00 00 00 00       	mov    $0x0,%ebx
  402a9e:	be e2 20 40 00       	mov    $0x4020e2,%esi
  402aa3:	bf 0e 00 00 00       	mov    $0xe,%edi
  402aa8:	e8 a3 e2 ff ff       	callq  400d50 <signal@plt>
  402aad:	89 df                	mov    %ebx,%edi
  402aaf:	e8 5c e2 ff ff       	callq  400d10 <alarm@plt>
  402ab4:	5b                   	pop    %rbx
  402ab5:	c3                   	retq   

0000000000402ab6 <init_driver>:
  402ab6:	55                   	push   %rbp
  402ab7:	53                   	push   %rbx
  402ab8:	48 83 ec 18          	sub    $0x18,%rsp
  402abc:	48 89 fd             	mov    %rdi,%rbp
  402abf:	be 01 00 00 00       	mov    $0x1,%esi
  402ac4:	bf 0d 00 00 00       	mov    $0xd,%edi
  402ac9:	e8 82 e2 ff ff       	callq  400d50 <signal@plt>
  402ace:	be 01 00 00 00       	mov    $0x1,%esi
  402ad3:	bf 1d 00 00 00       	mov    $0x1d,%edi
  402ad8:	e8 73 e2 ff ff       	callq  400d50 <signal@plt>
  402add:	be 01 00 00 00       	mov    $0x1,%esi
  402ae2:	bf 1d 00 00 00       	mov    $0x1d,%edi
  402ae7:	e8 64 e2 ff ff       	callq  400d50 <signal@plt>
  402aec:	ba 00 00 00 00       	mov    $0x0,%edx
  402af1:	be 01 00 00 00       	mov    $0x1,%esi
  402af6:	bf 02 00 00 00       	mov    $0x2,%edi
  402afb:	e8 70 e3 ff ff       	callq  400e70 <socket@plt>
  402b00:	89 c3                	mov    %eax,%ebx
  402b02:	85 c0                	test   %eax,%eax
  402b04:	79 4f                	jns    402b55 <init_driver+0x9f>
  402b06:	48 b8 45 72 72 6f 72 	movabs $0x43203a726f727245,%rax
  402b0d:	3a 20 43 
  402b10:	48 89 45 00          	mov    %rax,0x0(%rbp)
  402b14:	48 b8 6c 69 65 6e 74 	movabs $0x6e7520746e65696c,%rax
  402b1b:	20 75 6e 
  402b1e:	48 89 45 08          	mov    %rax,0x8(%rbp)
  402b22:	48 b8 61 62 6c 65 20 	movabs $0x206f7420656c6261,%rax
  402b29:	74 6f 20 
  402b2c:	48 89 45 10          	mov    %rax,0x10(%rbp)
  402b30:	48 b8 63 72 65 61 74 	movabs $0x7320657461657263,%rax
  402b37:	65 20 73 
  402b3a:	48 89 45 18          	mov    %rax,0x18(%rbp)
  402b3e:	c7 45 20 6f 63 6b 65 	movl   $0x656b636f,0x20(%rbp)
  402b45:	66 c7 45 24 74 00    	movw   $0x74,0x24(%rbp)
  402b4b:	b8 ff ff ff ff       	mov    $0xffffffff,%eax
  402b50:	e9 23 01 00 00       	jmpq   402c78 <init_driver+0x1c2>
  402b55:	bf 75 35 40 00       	mov    $0x403575,%edi
  402b5a:	e8 01 e2 ff ff       	callq  400d60 <gethostbyname@plt>
  402b5f:	48 85 c0             	test   %rax,%rax
  402b62:	75 68                	jne    402bcc <init_driver+0x116>
  402b64:	48 b8 45 72 72 6f 72 	movabs $0x44203a726f727245,%rax
  402b6b:	3a 20 44 
  402b6e:	48 89 45 00          	mov    %rax,0x0(%rbp)
  402b72:	48 b8 4e 53 20 69 73 	movabs $0x6e7520736920534e,%rax
  402b79:	20 75 6e 
  402b7c:	48 89 45 08          	mov    %rax,0x8(%rbp)
  402b80:	48 b8 61 62 6c 65 20 	movabs $0x206f7420656c6261,%rax
  402b87:	74 6f 20 
  402b8a:	48 89 45 10          	mov    %rax,0x10(%rbp)
  402b8e:	48 b8 72 65 73 6f 6c 	movabs $0x2065766c6f736572,%rax
  402b95:	76 65 20 
  402b98:	48 89 45 18          	mov    %rax,0x18(%rbp)
  402b9c:	48 b8 73 65 72 76 65 	movabs $0x6120726576726573,%rax
  402ba3:	72 20 61 
  402ba6:	48 89 45 20          	mov    %rax,0x20(%rbp)
  402baa:	c7 45 28 64 64 72 65 	movl   $0x65726464,0x28(%rbp)
  402bb1:	66 c7 45 2c 73 73    	movw   $0x7373,0x2c(%rbp)
  402bb7:	c6 45 2e 00          	movb   $0x0,0x2e(%rbp)
  402bbb:	89 df                	mov    %ebx,%edi
  402bbd:	e8 5e e1 ff ff       	callq  400d20 <close@plt>
  402bc2:	b8 ff ff ff ff       	mov    $0xffffffff,%eax
  402bc7:	e9 ac 00 00 00       	jmpq   402c78 <init_driver+0x1c2>
  402bcc:	48 c7 04 24 00 00 00 	movq   $0x0,(%rsp)
  402bd3:	00 
  402bd4:	48 c7 44 24 08 00 00 	movq   $0x0,0x8(%rsp)
  402bdb:	00 00 
  402bdd:	66 c7 04 24 02 00    	movw   $0x2,(%rsp)
  402be3:	48 8b 48 18          	mov    0x18(%rax),%rcx
  402be7:	48 63 50 14          	movslq 0x14(%rax),%rdx
  402beb:	48 8d 74 24 04       	lea    0x4(%rsp),%rsi
  402bf0:	48 8b 39             	mov    (%rcx),%rdi
  402bf3:	e8 f8 e1 ff ff       	callq  400df0 <bcopy@plt>
  402bf8:	66 c7 44 24 02 3c 9a 	movw   $0x9a3c,0x2(%rsp)
  402bff:	ba 10 00 00 00       	mov    $0x10,%edx
  402c04:	48 89 e6             	mov    %rsp,%rsi
  402c07:	89 df                	mov    %ebx,%edi
  402c09:	e8 52 e2 ff ff       	callq  400e60 <connect@plt>
  402c0e:	85 c0                	test   %eax,%eax
  402c10:	79 50                	jns    402c62 <init_driver+0x1ac>
  402c12:	48 b8 45 72 72 6f 72 	movabs $0x55203a726f727245,%rax
  402c19:	3a 20 55 
  402c1c:	48 89 45 00          	mov    %rax,0x0(%rbp)
  402c20:	48 b8 6e 61 62 6c 65 	movabs $0x6f7420656c62616e,%rax
  402c27:	20 74 6f 
  402c2a:	48 89 45 08          	mov    %rax,0x8(%rbp)
  402c2e:	48 b8 20 63 6f 6e 6e 	movabs $0x7463656e6e6f6320,%rax
  402c35:	65 63 74 
  402c38:	48 89 45 10          	mov    %rax,0x10(%rbp)
  402c3c:	48 b8 20 74 6f 20 73 	movabs $0x76726573206f7420,%rax
  402c43:	65 72 76 
  402c46:	48 89 45 18          	mov    %rax,0x18(%rbp)
  402c4a:	66 c7 45 20 65 72    	movw   $0x7265,0x20(%rbp)
  402c50:	c6 45 22 00          	movb   $0x0,0x22(%rbp)
  402c54:	89 df                	mov    %ebx,%edi
  402c56:	e8 c5 e0 ff ff       	callq  400d20 <close@plt>
  402c5b:	b8 ff ff ff ff       	mov    $0xffffffff,%eax
  402c60:	eb 16                	jmp    402c78 <init_driver+0x1c2>
  402c62:	89 df                	mov    %ebx,%edi
  402c64:	e8 b7 e0 ff ff       	callq  400d20 <close@plt>
  402c69:	66 c7 45 00 4f 4b    	movw   $0x4b4f,0x0(%rbp)
  402c6f:	c6 45 02 00          	movb   $0x0,0x2(%rbp)
  402c73:	b8 00 00 00 00       	mov    $0x0,%eax
  402c78:	48 83 c4 18          	add    $0x18,%rsp
  402c7c:	5b                   	pop    %rbx
  402c7d:	5d                   	pop    %rbp
  402c7e:	c3                   	retq   

0000000000402c7f <driver_post>:
  402c7f:	53                   	push   %rbx
  402c80:	48 83 ec 10          	sub    $0x10,%rsp
  402c84:	4c 89 cb             	mov    %r9,%rbx
  402c87:	45 85 c0             	test   %r8d,%r8d
  402c8a:	74 22                	je     402cae <driver_post+0x2f>
  402c8c:	48 89 ce             	mov    %rcx,%rsi
  402c8f:	bf 87 35 40 00       	mov    $0x403587,%edi
  402c94:	b8 00 00 00 00       	mov    $0x0,%eax
  402c99:	e8 52 e0 ff ff       	callq  400cf0 <printf@plt>
  402c9e:	66 c7 03 4f 4b       	movw   $0x4b4f,(%rbx)
  402ca3:	c6 43 02 00          	movb   $0x0,0x2(%rbx)
  402ca7:	b8 00 00 00 00       	mov    $0x0,%eax
  402cac:	eb 39                	jmp    402ce7 <driver_post+0x68>
  402cae:	48 85 ff             	test   %rdi,%rdi
  402cb1:	74 26                	je     402cd9 <driver_post+0x5a>
  402cb3:	80 3f 00             	cmpb   $0x0,(%rdi)
  402cb6:	74 21                	je     402cd9 <driver_post+0x5a>
  402cb8:	4c 89 0c 24          	mov    %r9,(%rsp)
  402cbc:	49 89 c9             	mov    %rcx,%r9
  402cbf:	49 89 d0             	mov    %rdx,%r8
  402cc2:	48 89 f9             	mov    %rdi,%rcx
  402cc5:	48 89 f2             	mov    %rsi,%rdx
  402cc8:	be 9a 3c 00 00       	mov    $0x3c9a,%esi
  402ccd:	bf 75 35 40 00       	mov    $0x403575,%edi
  402cd2:	e8 70 f6 ff ff       	callq  402347 <submitr>
  402cd7:	eb 0e                	jmp    402ce7 <driver_post+0x68>
  402cd9:	66 c7 03 4f 4b       	movw   $0x4b4f,(%rbx)
  402cde:	c6 43 02 00          	movb   $0x0,0x2(%rbx)
  402ce2:	b8 00 00 00 00       	mov    $0x0,%eax
  402ce7:	48 83 c4 10          	add    $0x10,%rsp
  402ceb:	5b                   	pop    %rbx
  402cec:	c3                   	retq   

0000000000402ced <check>:
  402ced:	89 f8                	mov    %edi,%eax
  402cef:	c1 e8 1c             	shr    $0x1c,%eax
  402cf2:	85 c0                	test   %eax,%eax
  402cf4:	74 1d                	je     402d13 <check+0x26>
  402cf6:	b9 00 00 00 00       	mov    $0x0,%ecx
  402cfb:	eb 0b                	jmp    402d08 <check+0x1b>
  402cfd:	89 f8                	mov    %edi,%eax
  402cff:	d3 e8                	shr    %cl,%eax
  402d01:	3c 0a                	cmp    $0xa,%al
  402d03:	74 14                	je     402d19 <check+0x2c>
  402d05:	83 c1 08             	add    $0x8,%ecx
  402d08:	83 f9 1f             	cmp    $0x1f,%ecx
  402d0b:	7e f0                	jle    402cfd <check+0x10>
  402d0d:	b8 01 00 00 00       	mov    $0x1,%eax
  402d12:	c3                   	retq   
  402d13:	b8 00 00 00 00       	mov    $0x0,%eax
  402d18:	c3                   	retq   
  402d19:	b8 00 00 00 00       	mov    $0x0,%eax
  402d1e:	c3                   	retq   

0000000000402d1f <gencookie>:
  402d1f:	53                   	push   %rbx
  402d20:	83 c7 01             	add    $0x1,%edi
  402d23:	e8 68 df ff ff       	callq  400c90 <srandom@plt>
  402d28:	e8 83 e0 ff ff       	callq  400db0 <random@plt>
  402d2d:	89 c3                	mov    %eax,%ebx
  402d2f:	89 c7                	mov    %eax,%edi
  402d31:	e8 b7 ff ff ff       	callq  402ced <check>
  402d36:	85 c0                	test   %eax,%eax
  402d38:	74 ee                	je     402d28 <gencookie+0x9>
  402d3a:	89 d8                	mov    %ebx,%eax
  402d3c:	5b                   	pop    %rbx
  402d3d:	c3                   	retq   
  402d3e:	66 90                	xchg   %ax,%ax

0000000000402d40 <__libc_csu_init>:
  402d40:	41 57                	push   %r15
  402d42:	41 89 ff             	mov    %edi,%r15d
  402d45:	41 56                	push   %r14
  402d47:	49 89 f6             	mov    %rsi,%r14
  402d4a:	41 55                	push   %r13
  402d4c:	49 89 d5             	mov    %rdx,%r13
  402d4f:	41 54                	push   %r12
  402d51:	4c 8d 25 a8 20 20 00 	lea    0x2020a8(%rip),%r12        # 604e00 <__frame_dummy_init_array_entry>
  402d58:	55                   	push   %rbp
  402d59:	48 8d 2d a8 20 20 00 	lea    0x2020a8(%rip),%rbp        # 604e08 <__init_array_end>
  402d60:	53                   	push   %rbx
  402d61:	4c 29 e5             	sub    %r12,%rbp
  402d64:	31 db                	xor    %ebx,%ebx
  402d66:	48 c1 fd 03          	sar    $0x3,%rbp
  402d6a:	48 83 ec 08          	sub    $0x8,%rsp
  402d6e:	e8 dd de ff ff       	callq  400c50 <_init>
  402d73:	48 85 ed             	test   %rbp,%rbp
  402d76:	74 1e                	je     402d96 <__libc_csu_init+0x56>
  402d78:	0f 1f 84 00 00 00 00 	nopl   0x0(%rax,%rax,1)
  402d7f:	00 
  402d80:	4c 89 ea             	mov    %r13,%rdx
  402d83:	4c 89 f6             	mov    %r14,%rsi
  402d86:	44 89 ff             	mov    %r15d,%edi
  402d89:	41 ff 14 dc          	callq  *(%r12,%rbx,8)
  402d8d:	48 83 c3 01          	add    $0x1,%rbx
  402d91:	48 39 eb             	cmp    %rbp,%rbx
  402d94:	75 ea                	jne    402d80 <__libc_csu_init+0x40>
  402d96:	48 83 c4 08          	add    $0x8,%rsp
  402d9a:	5b                   	pop    %rbx
  402d9b:	5d                   	pop    %rbp
  402d9c:	41 5c                	pop    %r12
  402d9e:	41 5d                	pop    %r13
  402da0:	41 5e                	pop    %r14
  402da2:	41 5f                	pop    %r15
  402da4:	c3                   	retq   
  402da5:	90                   	nop
  402da6:	66 2e 0f 1f 84 00 00 	nopw   %cs:0x0(%rax,%rax,1)
  402dad:	00 00 00 

0000000000402db0 <__libc_csu_fini>:
  402db0:	f3 c3                	repz retq 

Disassembly of section .fini:

0000000000402db4 <_fini>:
  402db4:	48 83 ec 08          	sub    $0x8,%rsp
  402db8:	48 83 c4 08          	add    $0x8,%rsp
  402dbc:	c3                   	retq   
